
C:\Users\user\AppData\Local\Temp\arduino_build_550825/LedDriver2.ino.elf:     file format elf32-avr


Disassembly of section .text:

00000000 <__vectors>:
__vectors():
       0:	45 c0       	rjmp	.+138    	; 0x8c <__ctors_end>
       2:	69 c0       	rjmp	.+210    	; 0xd6 <__bad_interrupt>
       4:	68 c0       	rjmp	.+208    	; 0xd6 <__bad_interrupt>
       6:	67 c0       	rjmp	.+206    	; 0xd6 <__bad_interrupt>
       8:	66 c0       	rjmp	.+204    	; 0xd6 <__bad_interrupt>
       a:	65 c0       	rjmp	.+202    	; 0xd6 <__bad_interrupt>
       c:	64 c0       	rjmp	.+200    	; 0xd6 <__bad_interrupt>
       e:	63 c0       	rjmp	.+198    	; 0xd6 <__bad_interrupt>
      10:	62 c0       	rjmp	.+196    	; 0xd6 <__bad_interrupt>
      12:	40 c5       	rjmp	.+2688   	; 0xa94 <__vector_9>
      14:	60 c0       	rjmp	.+192    	; 0xd6 <__bad_interrupt>
      16:	5f c0       	rjmp	.+190    	; 0xd6 <__bad_interrupt>
      18:	5e c0       	rjmp	.+188    	; 0xd6 <__bad_interrupt>
      1a:	5d c0       	rjmp	.+186    	; 0xd6 <__bad_interrupt>
      1c:	5c c0       	rjmp	.+184    	; 0xd6 <__bad_interrupt>
      1e:	5b c0       	rjmp	.+182    	; 0xd6 <__bad_interrupt>
      20:	5a c0       	rjmp	.+180    	; 0xd6 <__bad_interrupt>
      22:	59 c0       	rjmp	.+178    	; 0xd6 <__bad_interrupt>
      24:	58 c0       	rjmp	.+176    	; 0xd6 <__bad_interrupt>

00000026 <__trampolines_end>:
__trampolines_start():
      26:	00 00       	nop
      28:	00 00       	nop
      2a:	38 00       	.word	0x0038	; ????
      2c:	35 00       	.word	0x0035	; ????
      2e:	32 00       	.word	0x0032	; ????

00000030 <port_to_mode_PGM>:
      30:	00 00 00 00 37 00 34 00 31 00                       ....7.4.1.

0000003a <port_to_input_PGM>:
      3a:	00 00 00 00 36 00 33 00 30 00                       ....6.3.0.

00000044 <digital_pin_to_port_PGM>:
      44:	04 04 04 04 04 04 04 04 02 02 02 02 02 02 03 03     ................
      54:	03 03 03 03 02 02 03                                .......

0000005b <digital_pin_to_bit_mask_PGM>:
      5b:	01 02 04 08 10 20 40 80 01 02 04 08 10 20 01 02     ..... @...... ..
      6b:	04 08 10 20 40 80 40                                ... @.@

00000072 <digital_pin_to_timer_PGM>:
	...
      7a:	00 04 05 07 00 00 00 00 00 00 00 00 00 00 00 00     ................

0000008a <__ctors_start>:
__ctors_start():
      8a:	88 0c       	add	r8, r8

0000008c <__ctors_end>:
__dtors_end():
      8c:	11 24       	eor	r1, r1
      8e:	1f be       	out	0x3f, r1	; 63
      90:	cf e5       	ldi	r28, 0x5F	; 95
      92:	d4 e0       	ldi	r29, 0x04	; 4
      94:	de bf       	out	0x3e, r29	; 62
      96:	cd bf       	out	0x3d, r28	; 61

00000098 <__do_copy_data>:
__do_copy_data():
/home/jenkins-mingw32/workspace/avr-gcc-staging/label/Ubuntu14.04x64-mingw32/gcc-build/avr/avr4/libgcc/../../../../gcc/libgcc/config/avr/lib1funcs.S:2409
      98:	10 e0       	ldi	r17, 0x00	; 0
/home/jenkins-mingw32/workspace/avr-gcc-staging/label/Ubuntu14.04x64-mingw32/gcc-build/avr/avr4/libgcc/../../../../gcc/libgcc/config/avr/lib1funcs.S:2410
      9a:	a0 e6       	ldi	r26, 0x60	; 96
/home/jenkins-mingw32/workspace/avr-gcc-staging/label/Ubuntu14.04x64-mingw32/gcc-build/avr/avr4/libgcc/../../../../gcc/libgcc/config/avr/lib1funcs.S:2411
      9c:	b0 e0       	ldi	r27, 0x00	; 0
/home/jenkins-mingw32/workspace/avr-gcc-staging/label/Ubuntu14.04x64-mingw32/gcc-build/avr/avr4/libgcc/../../../../gcc/libgcc/config/avr/lib1funcs.S:2412
      9e:	e0 eb       	ldi	r30, 0xB0	; 176
/home/jenkins-mingw32/workspace/avr-gcc-staging/label/Ubuntu14.04x64-mingw32/gcc-build/avr/avr4/libgcc/../../../../gcc/libgcc/config/avr/lib1funcs.S:2413
      a0:	fb e1       	ldi	r31, 0x1B	; 27
/home/jenkins-mingw32/workspace/avr-gcc-staging/label/Ubuntu14.04x64-mingw32/gcc-build/avr/avr4/libgcc/../../../../gcc/libgcc/config/avr/lib1funcs.S:2414
      a2:	02 c0       	rjmp	.+4      	; 0xa8 <__do_copy_data+0x10>
/home/jenkins-mingw32/workspace/avr-gcc-staging/label/Ubuntu14.04x64-mingw32/gcc-build/avr/avr4/libgcc/../../../../gcc/libgcc/config/avr/lib1funcs.S:2417
      a4:	05 90       	lpm	r0, Z+
/home/jenkins-mingw32/workspace/avr-gcc-staging/label/Ubuntu14.04x64-mingw32/gcc-build/avr/avr4/libgcc/../../../../gcc/libgcc/config/avr/lib1funcs.S:2422
      a6:	0d 92       	st	X+, r0
/home/jenkins-mingw32/workspace/avr-gcc-staging/label/Ubuntu14.04x64-mingw32/gcc-build/avr/avr4/libgcc/../../../../gcc/libgcc/config/avr/lib1funcs.S:2424
      a8:	ae 39       	cpi	r26, 0x9E	; 158
/home/jenkins-mingw32/workspace/avr-gcc-staging/label/Ubuntu14.04x64-mingw32/gcc-build/avr/avr4/libgcc/../../../../gcc/libgcc/config/avr/lib1funcs.S:2425
      aa:	b1 07       	cpc	r27, r17
/home/jenkins-mingw32/workspace/avr-gcc-staging/label/Ubuntu14.04x64-mingw32/gcc-build/avr/avr4/libgcc/../../../../gcc/libgcc/config/avr/lib1funcs.S:2426
      ac:	d9 f7       	brne	.-10     	; 0xa4 <__do_copy_data+0xc>

000000ae <__do_clear_bss>:
__do_clear_bss():
/home/jenkins-mingw32/workspace/avr-gcc-staging/label/Ubuntu14.04x64-mingw32/gcc-build/avr/avr4/libgcc/../../../../gcc/libgcc/config/avr/lib1funcs.S:2441
      ae:	21 e0       	ldi	r18, 0x01	; 1
/home/jenkins-mingw32/workspace/avr-gcc-staging/label/Ubuntu14.04x64-mingw32/gcc-build/avr/avr4/libgcc/../../../../gcc/libgcc/config/avr/lib1funcs.S:2442
      b0:	ae e9       	ldi	r26, 0x9E	; 158
/home/jenkins-mingw32/workspace/avr-gcc-staging/label/Ubuntu14.04x64-mingw32/gcc-build/avr/avr4/libgcc/../../../../gcc/libgcc/config/avr/lib1funcs.S:2443
      b2:	b0 e0       	ldi	r27, 0x00	; 0
/home/jenkins-mingw32/workspace/avr-gcc-staging/label/Ubuntu14.04x64-mingw32/gcc-build/avr/avr4/libgcc/../../../../gcc/libgcc/config/avr/lib1funcs.S:2444
      b4:	01 c0       	rjmp	.+2      	; 0xb8 <.do_clear_bss_start>

000000b6 <.do_clear_bss_loop>:
/home/jenkins-mingw32/workspace/avr-gcc-staging/label/Ubuntu14.04x64-mingw32/gcc-build/avr/avr4/libgcc/../../../../gcc/libgcc/config/avr/lib1funcs.S:2446
      b6:	1d 92       	st	X+, r1

000000b8 <.do_clear_bss_start>:
/home/jenkins-mingw32/workspace/avr-gcc-staging/label/Ubuntu14.04x64-mingw32/gcc-build/avr/avr4/libgcc/../../../../gcc/libgcc/config/avr/lib1funcs.S:2448
      b8:	aa 33       	cpi	r26, 0x3A	; 58
/home/jenkins-mingw32/workspace/avr-gcc-staging/label/Ubuntu14.04x64-mingw32/gcc-build/avr/avr4/libgcc/../../../../gcc/libgcc/config/avr/lib1funcs.S:2449
      ba:	b2 07       	cpc	r27, r18
/home/jenkins-mingw32/workspace/avr-gcc-staging/label/Ubuntu14.04x64-mingw32/gcc-build/avr/avr4/libgcc/../../../../gcc/libgcc/config/avr/lib1funcs.S:2450
      bc:	e1 f7       	brne	.-8      	; 0xb6 <.do_clear_bss_loop>

000000be <__do_global_ctors>:
__do_global_ctors():
/home/jenkins-mingw32/workspace/avr-gcc-staging/label/Ubuntu14.04x64-mingw32/gcc-build/avr/avr4/libgcc/../../../../gcc/libgcc/config/avr/lib1funcs.S:2466
      be:	10 e0       	ldi	r17, 0x00	; 0
/home/jenkins-mingw32/workspace/avr-gcc-staging/label/Ubuntu14.04x64-mingw32/gcc-build/avr/avr4/libgcc/../../../../gcc/libgcc/config/avr/lib1funcs.S:2467
      c0:	c6 e4       	ldi	r28, 0x46	; 70
/home/jenkins-mingw32/workspace/avr-gcc-staging/label/Ubuntu14.04x64-mingw32/gcc-build/avr/avr4/libgcc/../../../../gcc/libgcc/config/avr/lib1funcs.S:2468
      c2:	d0 e0       	ldi	r29, 0x00	; 0
/home/jenkins-mingw32/workspace/avr-gcc-staging/label/Ubuntu14.04x64-mingw32/gcc-build/avr/avr4/libgcc/../../../../gcc/libgcc/config/avr/lib1funcs.S:2472
      c4:	03 c0       	rjmp	.+6      	; 0xcc <__do_global_ctors+0xe>
/home/jenkins-mingw32/workspace/avr-gcc-staging/label/Ubuntu14.04x64-mingw32/gcc-build/avr/avr4/libgcc/../../../../gcc/libgcc/config/avr/lib1funcs.S:2474
      c6:	21 97       	sbiw	r28, 0x01	; 1
/home/jenkins-mingw32/workspace/avr-gcc-staging/label/Ubuntu14.04x64-mingw32/gcc-build/avr/avr4/libgcc/../../../../gcc/libgcc/config/avr/lib1funcs.S:2480
      c8:	fe 01       	movw	r30, r28
/home/jenkins-mingw32/workspace/avr-gcc-staging/label/Ubuntu14.04x64-mingw32/gcc-build/avr/avr4/libgcc/../../../../gcc/libgcc/config/avr/lib1funcs.S:2481
      ca:	66 dd       	rcall	.-1332   	; 0xfffffb98 <__eeprom_end+0xff7efb98>
/home/jenkins-mingw32/workspace/avr-gcc-staging/label/Ubuntu14.04x64-mingw32/gcc-build/avr/avr4/libgcc/../../../../gcc/libgcc/config/avr/lib1funcs.S:2483
      cc:	c5 34       	cpi	r28, 0x45	; 69
/home/jenkins-mingw32/workspace/avr-gcc-staging/label/Ubuntu14.04x64-mingw32/gcc-build/avr/avr4/libgcc/../../../../gcc/libgcc/config/avr/lib1funcs.S:2484
      ce:	d1 07       	cpc	r29, r17
/home/jenkins-mingw32/workspace/avr-gcc-staging/label/Ubuntu14.04x64-mingw32/gcc-build/avr/avr4/libgcc/../../../../gcc/libgcc/config/avr/lib1funcs.S:2489
      d0:	d1 f7       	brne	.-12     	; 0xc6 <__do_global_ctors+0x8>
      d2:	2a d5       	rcall	.+2644   	; 0xb28 <main>
      d4:	6b cd       	rjmp	.-1322   	; 0xfffffbac <__eeprom_end+0xff7efbac>

000000d6 <__bad_interrupt>:
__vector_1():
      d6:	94 cf       	rjmp	.-216    	; 0x0 <__vectors>

000000d8 <digitalRead.constprop.10>:
digitalRead.constprop.10():
C:\Users\user\AppData\Local\Arduino15\packages\MiniCore\hardware\avr\3.0.0\cores\MCUdude_corefiles/wiring_digital.c:216
  SREG = oldSREG;
}

int digitalRead(uint8_t pin)
{
  uint8_t timer = digitalPinToTimer(pin);
      d8:	e0 e8       	ldi	r30, 0x80	; 128
      da:	f0 e0       	ldi	r31, 0x00	; 0
      dc:	84 91       	lpm	r24, Z
C:\Users\user\AppData\Local\Arduino15\packages\MiniCore\hardware\avr\3.0.0\cores\MCUdude_corefiles/wiring_digital.c:217
  uint8_t bit = digitalPinToBitMask(pin);
      de:	e9 e6       	ldi	r30, 0x69	; 105
      e0:	f0 e0       	ldi	r31, 0x00	; 0
      e2:	94 91       	lpm	r25, Z
C:\Users\user\AppData\Local\Arduino15\packages\MiniCore\hardware\avr\3.0.0\cores\MCUdude_corefiles/wiring_digital.c:218
  uint8_t port = digitalPinToPort(pin);
      e4:	e2 e5       	ldi	r30, 0x52	; 82
      e6:	f0 e0       	ldi	r31, 0x00	; 0
      e8:	e4 91       	lpm	r30, Z
C:\Users\user\AppData\Local\Arduino15\packages\MiniCore\hardware\avr\3.0.0\cores\MCUdude_corefiles/wiring_digital.c:220

  if (port == NOT_A_PIN) return LOW;
      ea:	ee 23       	and	r30, r30
      ec:	01 f1       	breq	.+64     	; 0x12e <digitalRead.constprop.10+0x56>
C:\Users\user\AppData\Local\Arduino15\packages\MiniCore\hardware\avr\3.0.0\cores\MCUdude_corefiles/wiring_digital.c:224

  // If the pin that support PWM output, we need to turn it off
  // before getting a digital reading.
  if (timer != NOT_ON_TIMER) turnOffPWM(timer);
      ee:	88 23       	and	r24, r24
      f0:	49 f0       	breq	.+18     	; 0x104 <digitalRead.constprop.10+0x2c>
turnOffPWM():
C:\Users\user\AppData\Local\Arduino15\packages\MiniCore\hardware\avr\3.0.0\cores\MCUdude_corefiles/wiring_digital.c:77
//
//static inline void turnOffPWM(uint8_t timer) __attribute__ ((always_inline));
//static inline void turnOffPWM(uint8_t timer)
static void turnOffPWM(uint8_t timer)
{
  switch (timer)
      f2:	85 30       	cpi	r24, 0x05	; 5
      f4:	a9 f0       	breq	.+42     	; 0x120 <digitalRead.constprop.10+0x48>
      f6:	87 30       	cpi	r24, 0x07	; 7
      f8:	b1 f0       	breq	.+44     	; 0x126 <digitalRead.constprop.10+0x4e>
      fa:	84 30       	cpi	r24, 0x04	; 4
      fc:	19 f4       	brne	.+6      	; 0x104 <digitalRead.constprop.10+0x2c>
C:\Users\user\AppData\Local\Arduino15\packages\MiniCore\hardware\avr\3.0.0\cores\MCUdude_corefiles/wiring_digital.c:82
  {
    // Timer1
    #if defined(TCCR1A) && defined(COM1A1)
      case TIMER1A:
        TCCR1A &= ~_BV(COM1A1);
      fe:	8f b5       	in	r24, 0x2f	; 47
     100:	8f 77       	andi	r24, 0x7F	; 127
C:\Users\user\AppData\Local\Arduino15\packages\MiniCore\hardware\avr\3.0.0\cores\MCUdude_corefiles/wiring_digital.c:87
        break;
    #endif
    #if defined(TCCR1A) && defined(COM1B1)
      case TIMER1B:
        TCCR1A &= ~_BV(COM1B1);
     102:	8f bd       	out	0x2f, r24	; 47
digitalRead.constprop.10():
C:\Users\user\AppData\Local\Arduino15\packages\MiniCore\hardware\avr\3.0.0\cores\MCUdude_corefiles/wiring_digital.c:226

  // If the pin that support PWM output, we need to turn it off
  // before getting a digital reading.
  if (timer != NOT_ON_TIMER) turnOffPWM(timer);

  if (*portInputRegister(port) & bit) return HIGH;
     104:	f0 e0       	ldi	r31, 0x00	; 0
     106:	ee 0f       	add	r30, r30
     108:	ff 1f       	adc	r31, r31
     10a:	e6 5c       	subi	r30, 0xC6	; 198
     10c:	ff 4f       	sbci	r31, 0xFF	; 255
     10e:	a5 91       	lpm	r26, Z+
     110:	b4 91       	lpm	r27, Z
     112:	ec 91       	ld	r30, X
     114:	e9 23       	and	r30, r25
     116:	81 e0       	ldi	r24, 0x01	; 1
     118:	90 e0       	ldi	r25, 0x00	; 0
     11a:	59 f4       	brne	.+22     	; 0x132 <digitalRead.constprop.10+0x5a>
     11c:	80 e0       	ldi	r24, 0x00	; 0
     11e:	08 95       	ret
turnOffPWM():
C:\Users\user\AppData\Local\Arduino15\packages\MiniCore\hardware\avr\3.0.0\cores\MCUdude_corefiles/wiring_digital.c:87
        TCCR1A &= ~_BV(COM1A1);
        break;
    #endif
    #if defined(TCCR1A) && defined(COM1B1)
      case TIMER1B:
        TCCR1A &= ~_BV(COM1B1);
     120:	8f b5       	in	r24, 0x2f	; 47
     122:	8f 7d       	andi	r24, 0xDF	; 223
     124:	ee cf       	rjmp	.-36     	; 0x102 <digitalRead.constprop.10+0x2a>
C:\Users\user\AppData\Local\Arduino15\packages\MiniCore\hardware\avr\3.0.0\cores\MCUdude_corefiles/wiring_digital.c:99
    #endif
    
    // Timer2
    #if defined(TCCR2) && defined(COM21)
      case TIMER2:
        TCCR2 &= ~_BV(COM21);
     126:	85 b5       	in	r24, 0x25	; 37
     128:	8f 7d       	andi	r24, 0xDF	; 223
     12a:	85 bd       	out	0x25, r24	; 37
     12c:	eb cf       	rjmp	.-42     	; 0x104 <digitalRead.constprop.10+0x2c>
digitalRead.constprop.10():
C:\Users\user\AppData\Local\Arduino15\packages\MiniCore\hardware\avr\3.0.0\cores\MCUdude_corefiles/wiring_digital.c:220
{
  uint8_t timer = digitalPinToTimer(pin);
  uint8_t bit = digitalPinToBitMask(pin);
  uint8_t port = digitalPinToPort(pin);

  if (port == NOT_A_PIN) return LOW;
     12e:	80 e0       	ldi	r24, 0x00	; 0
     130:	90 e0       	ldi	r25, 0x00	; 0
C:\Users\user\AppData\Local\Arduino15\packages\MiniCore\hardware\avr\3.0.0\cores\MCUdude_corefiles/wiring_digital.c:228
  // before getting a digital reading.
  if (timer != NOT_ON_TIMER) turnOffPWM(timer);

  if (*portInputRegister(port) & bit) return HIGH;
  return LOW;
}
     132:	08 95       	ret

00000134 <ClocklessController<(unsigned char)11, 2, 5, 3, (EOrder)66, 0, false, 10>::getMaxRefreshRate() const>:
_ZNK19ClocklessControllerILh11ELi2ELi5ELi3EL6EOrder66ELi0ELb0ELi10EE17getMaxRefreshRateEv():
C:\Users\user\Documents\Arduino\libraries\FastLED\src/platforms/avr/clockless_trinket.h:117
public:
	virtual void init() {
		FastPin<DATA_PIN>::setOutput();
	}

	virtual uint16_t getMaxRefreshRate() const { return 400; }
     134:	80 e9       	ldi	r24, 0x90	; 144
     136:	91 e0       	ldi	r25, 0x01	; 1
     138:	08 95       	ret

0000013a <micros>:
micros():
C:\Users\user\AppData\Local\Arduino15\packages\MiniCore\hardware\avr\3.0.0\cores\MCUdude_corefiles/wiring.c:237
  unsigned char f; // temporary storage for millis fraction counter
  unsigned char q = 0; // record whether an overflow is flagged
#endif
  // t will be the number where the timer0 counter stopped
  uint8_t t;
  uint8_t oldSREG = SREG;
     13a:	3f b7       	in	r19, 0x3f	; 63
C:\Users\user\AppData\Local\Arduino15\packages\MiniCore\hardware\avr\3.0.0\cores\MCUdude_corefiles/wiring.c:240

  // Stop all interrupts
  cli();
     13c:	f8 94       	cli
C:\Users\user\AppData\Local\Arduino15\packages\MiniCore\hardware\avr\3.0.0\cores\MCUdude_corefiles/wiring.c:247
#ifdef CORRECT_EXACT_MICROS
  // combine exact millisec and 8usec counters
  m = timer0_millis;
  f = timer0_fract;
#else
  m = timer0_overflow_count;
     13e:	80 91 a1 00 	lds	r24, 0x00A1	; 0x8000a1 <timer0_overflow_count>
     142:	90 91 a2 00 	lds	r25, 0x00A2	; 0x8000a2 <timer0_overflow_count+0x1>
     146:	a0 91 a3 00 	lds	r26, 0x00A3	; 0x8000a3 <timer0_overflow_count+0x2>
     14a:	b0 91 a4 00 	lds	r27, 0x00A4	; 0x8000a4 <timer0_overflow_count+0x3>
C:\Users\user\AppData\Local\Arduino15\packages\MiniCore\hardware\avr\3.0.0\cores\MCUdude_corefiles/wiring.c:252
#endif

  // TCNT0 : The Timer Counter Register
#if defined(TCNT0)
  t = TCNT0;
     14e:	22 b7       	in	r18, 0x32	; 50
C:\Users\user\AppData\Local\Arduino15\packages\MiniCore\hardware\avr\3.0.0\cores\MCUdude_corefiles/wiring.c:268
    m++;
#else
    q = 1;
#endif
#else
  if ((TIFR & _BV(TOV0)) && (t < 255))
     150:	08 b6       	in	r0, 0x38	; 56
     152:	00 fe       	sbrs	r0, 0
     154:	05 c0       	rjmp	.+10     	; 0x160 <micros+0x26>
     156:	2f 3f       	cpi	r18, 0xFF	; 255
     158:	19 f0       	breq	.+6      	; 0x160 <micros+0x26>
C:\Users\user\AppData\Local\Arduino15\packages\MiniCore\hardware\avr\3.0.0\cores\MCUdude_corefiles/wiring.c:270
#ifndef CORRECT_EXACT_MICROS
    m++;
     15a:	01 96       	adiw	r24, 0x01	; 1
     15c:	a1 1d       	adc	r26, r1
     15e:	b1 1d       	adc	r27, r1
C:\Users\user\AppData\Local\Arduino15\packages\MiniCore\hardware\avr\3.0.0\cores\MCUdude_corefiles/wiring.c:276
#else
    q = 1;
#endif
#endif
  // Restore SREG
  SREG = oldSREG;
     160:	3f bf       	out	0x3f, r19	; 63
C:\Users\user\AppData\Local\Arduino15\packages\MiniCore\hardware\avr\3.0.0\cores\MCUdude_corefiles/wiring.c:292
      ((t * MICROSECONDS_PER_TIMER0_OVERFLOW) >> 8);
  return q ? m + MICROSECONDS_PER_TIMER0_OVERFLOW : m;
#elif 1
  /* All power-of-two Megahertz frequencies enter here, as well as 12.8 MHz.
     We only end up here if right shift before multiplication is exact. */
  return ((m << 8) + t) * (MICROSECONDS_PER_TIMER0_OVERFLOW >> 8);
     162:	ba 2f       	mov	r27, r26
     164:	a9 2f       	mov	r26, r25
     166:	98 2f       	mov	r25, r24
     168:	88 27       	eor	r24, r24
     16a:	bc 01       	movw	r22, r24
     16c:	cd 01       	movw	r24, r26
     16e:	62 0f       	add	r22, r18
     170:	71 1d       	adc	r23, r1
     172:	81 1d       	adc	r24, r1
     174:	91 1d       	adc	r25, r1
     176:	43 e0       	ldi	r20, 0x03	; 3
     178:	66 0f       	add	r22, r22
     17a:	77 1f       	adc	r23, r23
     17c:	88 1f       	adc	r24, r24
     17e:	99 1f       	adc	r25, r25
     180:	4a 95       	dec	r20
     182:	d1 f7       	brne	.-12     	; 0x178 <micros+0x3e>
C:\Users\user\AppData\Local\Arduino15\packages\MiniCore\hardware\avr\3.0.0\cores\MCUdude_corefiles/wiring.c:393
  // m & t are multiplied by 4 (since it was already multiplied by 256)
  // t is multiplied by 4
  return ((m << 8) + t) * (64 / clockCyclesPerMicrosecond());
#endif
#endif // 0
}
     184:	08 95       	ret

00000186 <CFastLED::show() [clone .constprop.13]>:
_ZN8CFastLED4showEv.constprop.13():
C:\Users\user\Documents\Arduino\libraries\FastLED\src/FastLED.h:573
	/// Update all our controllers with the current led colors, using the passed in brightness
	/// @param scale the brightness value to use in place of the stored value
	void show(uint8_t scale);

	/// Update all our controllers with the current led colors
	void show() { show(m_Scale); }
     186:	4f 92       	push	r4
     188:	5f 92       	push	r5
     18a:	6f 92       	push	r6
     18c:	7f 92       	push	r7
     18e:	9f 92       	push	r9
     190:	af 92       	push	r10
     192:	bf 92       	push	r11
     194:	cf 92       	push	r12
     196:	df 92       	push	r13
     198:	ef 92       	push	r14
     19a:	ff 92       	push	r15
     19c:	0f 93       	push	r16
     19e:	1f 93       	push	r17
     1a0:	cf 93       	push	r28
     1a2:	df 93       	push	r29
     1a4:	00 d0       	rcall	.+0      	; 0x1a6 <CFastLED::show() [clone .constprop.13]+0x20>
     1a6:	1f 92       	push	r1
     1a8:	cd b7       	in	r28, 0x3d	; 61
     1aa:	de b7       	in	r29, 0x3e	; 62
     1ac:	d0 90 2d 01 	lds	r13, 0x012D	; 0x80012d <FastLED>
show():
C:\Users\user\Documents\Arduino\libraries\FastLED\src/FastLED.cpp:56
	return *pLed;
}

void CFastLED::show(uint8_t scale) {
	// guard against showing too rapidly
	while(m_nMinMicros && ((micros()-lastshow) < m_nMinMicros));
     1b0:	80 91 30 01 	lds	r24, 0x0130	; 0x800130 <FastLED+0x3>
     1b4:	90 91 31 01 	lds	r25, 0x0131	; 0x800131 <FastLED+0x4>
     1b8:	a0 91 32 01 	lds	r26, 0x0132	; 0x800132 <FastLED+0x5>
     1bc:	b0 91 33 01 	lds	r27, 0x0133	; 0x800133 <FastLED+0x6>
     1c0:	89 2b       	or	r24, r25
     1c2:	8a 2b       	or	r24, r26
     1c4:	8b 2b       	or	r24, r27
     1c6:	d1 f0       	breq	.+52     	; 0x1fc <CFastLED::show() [clone .constprop.13]+0x76>
     1c8:	b8 df       	rcall	.-144    	; 0x13a <micros>
     1ca:	00 91 29 01 	lds	r16, 0x0129	; 0x800129 <lastshow>
     1ce:	10 91 2a 01 	lds	r17, 0x012A	; 0x80012a <lastshow+0x1>
     1d2:	20 91 2b 01 	lds	r18, 0x012B	; 0x80012b <lastshow+0x2>
     1d6:	30 91 2c 01 	lds	r19, 0x012C	; 0x80012c <lastshow+0x3>
     1da:	60 1b       	sub	r22, r16
     1dc:	71 0b       	sbc	r23, r17
     1de:	82 0b       	sbc	r24, r18
     1e0:	93 0b       	sbc	r25, r19
     1e2:	00 91 30 01 	lds	r16, 0x0130	; 0x800130 <FastLED+0x3>
     1e6:	10 91 31 01 	lds	r17, 0x0131	; 0x800131 <FastLED+0x4>
     1ea:	20 91 32 01 	lds	r18, 0x0132	; 0x800132 <FastLED+0x5>
     1ee:	30 91 33 01 	lds	r19, 0x0133	; 0x800133 <FastLED+0x6>
     1f2:	60 17       	cp	r22, r16
     1f4:	71 07       	cpc	r23, r17
     1f6:	82 07       	cpc	r24, r18
     1f8:	93 07       	cpc	r25, r19
     1fa:	d0 f2       	brcs	.-76     	; 0x1b0 <CFastLED::show() [clone .constprop.13]+0x2a>
C:\Users\user\Documents\Arduino\libraries\FastLED\src/FastLED.cpp:57
	lastshow = micros();
     1fc:	9e df       	rcall	.-196    	; 0x13a <micros>
     1fe:	60 93 29 01 	sts	0x0129, r22	; 0x800129 <lastshow>
     202:	70 93 2a 01 	sts	0x012A, r23	; 0x80012a <lastshow+0x1>
     206:	80 93 2b 01 	sts	0x012B, r24	; 0x80012b <lastshow+0x2>
     20a:	90 93 2c 01 	sts	0x012C, r25	; 0x80012c <lastshow+0x3>
C:\Users\user\Documents\Arduino\libraries\FastLED\src/FastLED.cpp:60

	// If we have a function for computing power, use it!
	if(m_pPowerFunc) {
     20e:	e0 91 38 01 	lds	r30, 0x0138	; 0x800138 <FastLED+0xb>
     212:	f0 91 39 01 	lds	r31, 0x0139	; 0x800139 <FastLED+0xc>
     216:	30 97       	sbiw	r30, 0x00	; 0
     218:	59 f0       	breq	.+22     	; 0x230 <CFastLED::show() [clone .constprop.13]+0xaa>
C:\Users\user\Documents\Arduino\libraries\FastLED\src/FastLED.cpp:61
		scale = (*m_pPowerFunc)(scale, m_nPowerData);
     21a:	40 91 34 01 	lds	r20, 0x0134	; 0x800134 <FastLED+0x7>
     21e:	50 91 35 01 	lds	r21, 0x0135	; 0x800135 <FastLED+0x8>
     222:	60 91 36 01 	lds	r22, 0x0136	; 0x800136 <FastLED+0x9>
     226:	70 91 37 01 	lds	r23, 0x0137	; 0x800137 <FastLED+0xa>
     22a:	8d 2d       	mov	r24, r13
     22c:	09 95       	icall
     22e:	d8 2e       	mov	r13, r24
_ZN14CLEDController4headEv():
C:\Users\user\Documents\Arduino\libraries\FastLED\src/controller.h:141
        showColor(data, m_nLeds, getAdjustment(brightness));
    }

    /// Get the first LED controller in the linked list of controllers
    /// @returns CLEDController::m_pHead
    static CLEDController *head() { return m_pHead; }
     230:	e0 90 27 01 	lds	r14, 0x0127	; 0x800127 <CLEDController::m_pHead>
     234:	f0 90 28 01 	lds	r15, 0x0128	; 0x800128 <CLEDController::m_pHead+0x1>
computeAdjustment():
C:\Users\user\Documents\Arduino\libraries\FastLED\src/controller.h:236
              if(scale > 0) {
                  for(uint8_t i = 0; i < 3; ++i) {
                      uint8_t cc = colorCorrection.raw[i];
                      uint8_t ct = colorTemperature.raw[i];
                      if(cc > 0 && ct > 0) {
                          uint32_t work = (((uint32_t)cc)+1) * (((uint32_t)ct)+1) * scale;
     238:	4d 2c       	mov	r4, r13
     23a:	51 2c       	mov	r5, r1
     23c:	71 2c       	mov	r7, r1
     23e:	61 2c       	mov	r6, r1
show():
C:\Users\user\Documents\Arduino\libraries\FastLED\src/FastLED.cpp:65
	}

	CLEDController *pCur = CLEDController::head();
	while(pCur) {
     240:	e1 14       	cp	r14, r1
     242:	f1 04       	cpc	r15, r1
     244:	09 f4       	brne	.+2      	; 0x248 <CFastLED::show() [clone .constprop.13]+0xc2>
     246:	57 c0       	rjmp	.+174    	; 0x2f6 <CFastLED::show() [clone .constprop.13]+0x170>
     248:	d7 01       	movw	r26, r14
     24a:	1c 96       	adiw	r26, 0x0c	; 12
     24c:	cc 90       	ld	r12, X
     24e:	1c 97       	sbiw	r26, 0x0c	; 12
C:\Users\user\Documents\Arduino\libraries\FastLED\src/FastLED.cpp:67
		uint8_t d = pCur->getDither();
		if(m_nFPS < 100) { pCur->setDither(0); }
     250:	80 91 2e 01 	lds	r24, 0x012E	; 0x80012e <FastLED+0x1>
     254:	90 91 2f 01 	lds	r25, 0x012F	; 0x80012f <FastLED+0x2>
     258:	84 36       	cpi	r24, 0x64	; 100
     25a:	91 05       	cpc	r25, r1
     25c:	10 f4       	brcc	.+4      	; 0x262 <CFastLED::show() [clone .constprop.13]+0xdc>
_ZN14CLEDController9setDitherEh():
C:\Users\user\Documents\Arduino\libraries\FastLED\src/controller.h:183
    CRGB &operator[](int x) { return m_Data[x]; }

    /// Set the dithering mode for this controller to use
    /// @param ditherMode the dithering mode to set
    /// @returns a reference to the controller
    inline CLEDController & setDither(uint8_t ditherMode = BINARY_DITHER) { m_DitherMode = ditherMode; return *this; }
     25e:	1c 96       	adiw	r26, 0x0c	; 12
     260:	1c 92       	st	X, r1
showLeds():
C:\Users\user\Documents\Arduino\libraries\FastLED\src/controller.h:127

    /// Write the data to the LEDs managed by this controller
    /// @param brightness the brightness of the LEDs
    /// @see show(const struct CRGB*, int, uint8_t)
    void showLeds(uint8_t brightness=255) {
        show(m_Data, m_nLeds, getAdjustment(brightness));
     262:	d7 01       	movw	r26, r14
     264:	ed 91       	ld	r30, X+
     266:	fc 91       	ld	r31, X
     268:	a2 80       	ldd	r10, Z+2	; 0x02
     26a:	b3 80       	ldd	r11, Z+3	; 0x03
_ZN4CRGBC2Ehhh():
C:\Users\user\Documents\Arduino\libraries\FastLED\src/pixeltypes.h:169
    /// Allow construction from red, green, and blue
    /// @param ir input red value
    /// @param ig input green value
    /// @param ib input blue value
    inline CRGB( uint8_t ir, uint8_t ig, uint8_t ib)  __attribute__((always_inline))
        : r(ir), g(ig), b(ib)
     26c:	19 82       	std	Y+1, r1	; 0x01
     26e:	1a 82       	std	Y+2, r1	; 0x02
     270:	1b 82       	std	Y+3, r1	; 0x03
computeAdjustment():
C:\Users\user\Documents\Arduino\libraries\FastLED\src/controller.h:231
      #if defined(NO_CORRECTION) && (NO_CORRECTION==1)
              return CRGB(scale,scale,scale);
      #else
              CRGB adj(0,0,0);

              if(scale > 0) {
     272:	dd 20       	and	r13, r13
     274:	69 f1       	breq	.+90     	; 0x2d0 <CFastLED::show() [clone .constprop.13]+0x14a>
     276:	f7 01       	movw	r30, r14
     278:	36 96       	adiw	r30, 0x06	; 6
     27a:	10 e0       	ldi	r17, 0x00	; 0
     27c:	00 e0       	ldi	r16, 0x00	; 0
C:\Users\user\Documents\Arduino\libraries\FastLED\src/controller.h:233
                  for(uint8_t i = 0; i < 3; ++i) {
                      uint8_t cc = colorCorrection.raw[i];
     27e:	21 91       	ld	r18, Z+
C:\Users\user\Documents\Arduino\libraries\FastLED\src/controller.h:235
                      uint8_t ct = colorTemperature.raw[i];
                      if(cc > 0 && ct > 0) {
     280:	22 23       	and	r18, r18
     282:	09 f1       	breq	.+66     	; 0x2c6 <CFastLED::show() [clone .constprop.13]+0x140>
C:\Users\user\Documents\Arduino\libraries\FastLED\src/controller.h:234
              CRGB adj(0,0,0);

              if(scale > 0) {
                  for(uint8_t i = 0; i < 3; ++i) {
                      uint8_t cc = colorCorrection.raw[i];
                      uint8_t ct = colorTemperature.raw[i];
     284:	92 80       	ldd	r9, Z+2	; 0x02
C:\Users\user\Documents\Arduino\libraries\FastLED\src/controller.h:235
                      if(cc > 0 && ct > 0) {
     286:	99 20       	and	r9, r9
     288:	f1 f0       	breq	.+60     	; 0x2c6 <CFastLED::show() [clone .constprop.13]+0x140>
C:\Users\user\Documents\Arduino\libraries\FastLED\src/controller.h:236
                          uint32_t work = (((uint32_t)cc)+1) * (((uint32_t)ct)+1) * scale;
     28a:	30 e0       	ldi	r19, 0x00	; 0
     28c:	50 e0       	ldi	r21, 0x00	; 0
     28e:	40 e0       	ldi	r20, 0x00	; 0
     290:	2f 5f       	subi	r18, 0xFF	; 255
     292:	3f 4f       	sbci	r19, 0xFF	; 255
     294:	4f 4f       	sbci	r20, 0xFF	; 255
     296:	5f 4f       	sbci	r21, 0xFF	; 255
     298:	c3 01       	movw	r24, r6
     29a:	b2 01       	movw	r22, r4
     29c:	41 dc       	rcall	.-1918   	; 0xfffffb20 <__eeprom_end+0xff7efb20>
     29e:	9b 01       	movw	r18, r22
     2a0:	ac 01       	movw	r20, r24
     2a2:	89 2d       	mov	r24, r9
     2a4:	90 e0       	ldi	r25, 0x00	; 0
     2a6:	b0 e0       	ldi	r27, 0x00	; 0
     2a8:	a0 e0       	ldi	r26, 0x00	; 0
     2aa:	bc 01       	movw	r22, r24
     2ac:	cd 01       	movw	r24, r26
     2ae:	6f 5f       	subi	r22, 0xFF	; 255
     2b0:	7f 4f       	sbci	r23, 0xFF	; 255
     2b2:	8f 4f       	sbci	r24, 0xFF	; 255
     2b4:	9f 4f       	sbci	r25, 0xFF	; 255
     2b6:	34 dc       	rcall	.-1944   	; 0xfffffb20 <__eeprom_end+0xff7efb20>
C:\Users\user\Documents\Arduino\libraries\FastLED\src/controller.h:238
                          work /= 0x10000L;
                          adj.raw[i] = work & 0xFF;
     2b8:	a1 e0       	ldi	r26, 0x01	; 1
     2ba:	b0 e0       	ldi	r27, 0x00	; 0
     2bc:	ac 0f       	add	r26, r28
     2be:	bd 1f       	adc	r27, r29
     2c0:	a0 0f       	add	r26, r16
     2c2:	b1 1f       	adc	r27, r17
     2c4:	8c 93       	st	X, r24
     2c6:	0f 5f       	subi	r16, 0xFF	; 255
     2c8:	1f 4f       	sbci	r17, 0xFF	; 255
C:\Users\user\Documents\Arduino\libraries\FastLED\src/controller.h:232
              return CRGB(scale,scale,scale);
      #else
              CRGB adj(0,0,0);

              if(scale > 0) {
                  for(uint8_t i = 0; i < 3; ++i) {
     2ca:	03 30       	cpi	r16, 0x03	; 3
     2cc:	11 05       	cpc	r17, r1
     2ce:	b9 f6       	brne	.-82     	; 0x27e <CFastLED::show() [clone .constprop.13]+0xf8>
C:\Users\user\Documents\Arduino\libraries\FastLED\src/controller.h:243
                          adj.raw[i] = work & 0xFF;
                      }
                  }
              }

              return adj;
     2d0:	09 81       	ldd	r16, Y+1	; 0x01
     2d2:	1a 81       	ldd	r17, Y+2	; 0x02
     2d4:	2b 81       	ldd	r18, Y+3	; 0x03
showLeds():
C:\Users\user\Documents\Arduino\libraries\FastLED\src/controller.h:127

    /// Write the data to the LEDs managed by this controller
    /// @param brightness the brightness of the LEDs
    /// @see show(const struct CRGB*, int, uint8_t)
    void showLeds(uint8_t brightness=255) {
        show(m_Data, m_nLeds, getAdjustment(brightness));
     2d6:	f7 01       	movw	r30, r14
     2d8:	45 85       	ldd	r20, Z+13	; 0x0d
     2da:	56 85       	ldd	r21, Z+14	; 0x0e
     2dc:	62 81       	ldd	r22, Z+2	; 0x02
     2de:	73 81       	ldd	r23, Z+3	; 0x03
     2e0:	c7 01       	movw	r24, r14
     2e2:	f5 01       	movw	r30, r10
     2e4:	09 95       	icall
_ZN14CLEDController9setDitherEh():
C:\Users\user\Documents\Arduino\libraries\FastLED\src/controller.h:183
    CRGB &operator[](int x) { return m_Data[x]; }

    /// Set the dithering mode for this controller to use
    /// @param ditherMode the dithering mode to set
    /// @returns a reference to the controller
    inline CLEDController & setDither(uint8_t ditherMode = BINARY_DITHER) { m_DitherMode = ditherMode; return *this; }
     2e6:	d7 01       	movw	r26, r14
     2e8:	1c 96       	adiw	r26, 0x0c	; 12
     2ea:	cc 92       	st	X, r12
     2ec:	1c 97       	sbiw	r26, 0x0c	; 12
     2ee:	14 96       	adiw	r26, 0x04	; 4
     2f0:	ed 90       	ld	r14, X+
     2f2:	fc 90       	ld	r15, X
     2f4:	a5 cf       	rjmp	.-182    	; 0x240 <CFastLED::show() [clone .constprop.13]+0xba>
countFPS():
C:\Users\user\Documents\Arduino\libraries\FastLED\src/FastLED.cpp:225

void CFastLED::countFPS(int nFrames) {
	static int br = 0;
	static uint32_t lastframe = 0; // millis();

	if(br++ >= nFrames) {
     2f6:	80 91 25 01 	lds	r24, 0x0125	; 0x800125 <CFastLED::countFPS(int)::br>
     2fa:	90 91 26 01 	lds	r25, 0x0126	; 0x800126 <CFastLED::countFPS(int)::br+0x1>
     2fe:	9c 01       	movw	r18, r24
     300:	2f 5f       	subi	r18, 0xFF	; 255
     302:	3f 4f       	sbci	r19, 0xFF	; 255
     304:	30 93 26 01 	sts	0x0126, r19	; 0x800126 <CFastLED::countFPS(int)::br+0x1>
     308:	20 93 25 01 	sts	0x0125, r18	; 0x800125 <CFastLED::countFPS(int)::br>
     30c:	49 97       	sbiw	r24, 0x19	; 25
     30e:	0c f4       	brge	.+2      	; 0x312 <CFastLED::show() [clone .constprop.13]+0x18c>
     310:	49 c0       	rjmp	.+146    	; 0x3a4 <CFastLED::show() [clone .constprop.13]+0x21e>
millis():
C:\Users\user\AppData\Local\Arduino15\packages\MiniCore\hardware\avr\3.0.0\cores\MCUdude_corefiles/wiring.c:218
}

unsigned long millis()
{
  unsigned long m;
  uint8_t oldSREG = SREG;
     312:	8f b7       	in	r24, 0x3f	; 63
C:\Users\user\AppData\Local\Arduino15\packages\MiniCore\hardware\avr\3.0.0\cores\MCUdude_corefiles/wiring.c:222

  // disable interrupts while we read timer0_millis or we might get an
  // inconsistent value (e.g. in the middle of a write to timer0_millis)
  cli();
     314:	f8 94       	cli
C:\Users\user\AppData\Local\Arduino15\packages\MiniCore\hardware\avr\3.0.0\cores\MCUdude_corefiles/wiring.c:223
  m = timer0_millis;
     316:	20 91 1d 01 	lds	r18, 0x011D	; 0x80011d <timer0_millis>
     31a:	30 91 1e 01 	lds	r19, 0x011E	; 0x80011e <timer0_millis+0x1>
     31e:	40 91 1f 01 	lds	r20, 0x011F	; 0x80011f <timer0_millis+0x2>
     322:	50 91 20 01 	lds	r21, 0x0120	; 0x800120 <timer0_millis+0x3>
C:\Users\user\AppData\Local\Arduino15\packages\MiniCore\hardware\avr\3.0.0\cores\MCUdude_corefiles/wiring.c:224
  SREG = oldSREG;
     326:	8f bf       	out	0x3f, r24	; 63
countFPS():
C:\Users\user\Documents\Arduino\libraries\FastLED\src/FastLED.cpp:227
		uint32_t now = millis();
		now -= lastframe;
     328:	80 91 21 01 	lds	r24, 0x0121	; 0x800121 <CFastLED::countFPS(int)::lastframe>
     32c:	90 91 22 01 	lds	r25, 0x0122	; 0x800122 <CFastLED::countFPS(int)::lastframe+0x1>
     330:	a0 91 23 01 	lds	r26, 0x0123	; 0x800123 <CFastLED::countFPS(int)::lastframe+0x2>
     334:	b0 91 24 01 	lds	r27, 0x0124	; 0x800124 <CFastLED::countFPS(int)::lastframe+0x3>
     338:	28 1b       	sub	r18, r24
     33a:	39 0b       	sbc	r19, r25
     33c:	4a 0b       	sbc	r20, r26
     33e:	5b 0b       	sbc	r21, r27
C:\Users\user\Documents\Arduino\libraries\FastLED\src/FastLED.cpp:228
		if(now == 0) {
     340:	21 f4       	brne	.+8      	; 0x34a <CFastLED::show() [clone .constprop.13]+0x1c4>
_ZN8CFastLED4showEv.constprop.13():
C:\Users\user\Documents\Arduino\libraries\FastLED\src/FastLED.cpp:229
			now = 1; // prevent division by zero below
     342:	21 e0       	ldi	r18, 0x01	; 1
     344:	30 e0       	ldi	r19, 0x00	; 0
     346:	40 e0       	ldi	r20, 0x00	; 0
     348:	50 e0       	ldi	r21, 0x00	; 0
countFPS():
C:\Users\user\Documents\Arduino\libraries\FastLED\src/FastLED.cpp:231
		}
		m_nFPS = (br * 1000) / now;
     34a:	e0 91 25 01 	lds	r30, 0x0125	; 0x800125 <CFastLED::countFPS(int)::br>
     34e:	f0 91 26 01 	lds	r31, 0x0126	; 0x800126 <CFastLED::countFPS(int)::br+0x1>
     352:	88 ee       	ldi	r24, 0xE8	; 232
     354:	93 e0       	ldi	r25, 0x03	; 3
     356:	e8 9f       	mul	r30, r24
     358:	b0 01       	movw	r22, r0
     35a:	e9 9f       	mul	r30, r25
     35c:	70 0d       	add	r23, r0
     35e:	f8 9f       	mul	r31, r24
     360:	70 0d       	add	r23, r0
     362:	11 24       	eor	r1, r1
     364:	07 2e       	mov	r0, r23
     366:	00 0c       	add	r0, r0
     368:	88 0b       	sbc	r24, r24
     36a:	99 0b       	sbc	r25, r25
     36c:	ab db       	rcall	.-2218   	; 0xfffffac4 <__eeprom_end+0xff7efac4>
     36e:	30 93 2f 01 	sts	0x012F, r19	; 0x80012f <FastLED+0x2>
     372:	20 93 2e 01 	sts	0x012E, r18	; 0x80012e <FastLED+0x1>
C:\Users\user\Documents\Arduino\libraries\FastLED\src/FastLED.cpp:232
		br = 0;
     376:	10 92 26 01 	sts	0x0126, r1	; 0x800126 <CFastLED::countFPS(int)::br+0x1>
     37a:	10 92 25 01 	sts	0x0125, r1	; 0x800125 <CFastLED::countFPS(int)::br>
millis():
C:\Users\user\AppData\Local\Arduino15\packages\MiniCore\hardware\avr\3.0.0\cores\MCUdude_corefiles/wiring.c:218
}

unsigned long millis()
{
  unsigned long m;
  uint8_t oldSREG = SREG;
     37e:	2f b7       	in	r18, 0x3f	; 63
C:\Users\user\AppData\Local\Arduino15\packages\MiniCore\hardware\avr\3.0.0\cores\MCUdude_corefiles/wiring.c:222

  // disable interrupts while we read timer0_millis or we might get an
  // inconsistent value (e.g. in the middle of a write to timer0_millis)
  cli();
     380:	f8 94       	cli
C:\Users\user\AppData\Local\Arduino15\packages\MiniCore\hardware\avr\3.0.0\cores\MCUdude_corefiles/wiring.c:223
  m = timer0_millis;
     382:	80 91 1d 01 	lds	r24, 0x011D	; 0x80011d <timer0_millis>
     386:	90 91 1e 01 	lds	r25, 0x011E	; 0x80011e <timer0_millis+0x1>
     38a:	a0 91 1f 01 	lds	r26, 0x011F	; 0x80011f <timer0_millis+0x2>
     38e:	b0 91 20 01 	lds	r27, 0x0120	; 0x800120 <timer0_millis+0x3>
C:\Users\user\AppData\Local\Arduino15\packages\MiniCore\hardware\avr\3.0.0\cores\MCUdude_corefiles/wiring.c:224
  SREG = oldSREG;
     392:	2f bf       	out	0x3f, r18	; 63
countFPS():
C:\Users\user\Documents\Arduino\libraries\FastLED\src/FastLED.cpp:233
		lastframe = millis();
     394:	80 93 21 01 	sts	0x0121, r24	; 0x800121 <CFastLED::countFPS(int)::lastframe>
     398:	90 93 22 01 	sts	0x0122, r25	; 0x800122 <CFastLED::countFPS(int)::lastframe+0x1>
     39c:	a0 93 23 01 	sts	0x0123, r26	; 0x800123 <CFastLED::countFPS(int)::lastframe+0x2>
     3a0:	b0 93 24 01 	sts	0x0124, r27	; 0x800124 <CFastLED::countFPS(int)::lastframe+0x3>
_ZN8CFastLED4showEv.constprop.13():
C:\Users\user\Documents\Arduino\libraries\FastLED\src/FastLED.h:573
     3a4:	0f 90       	pop	r0
     3a6:	0f 90       	pop	r0
     3a8:	0f 90       	pop	r0
     3aa:	df 91       	pop	r29
     3ac:	cf 91       	pop	r28
     3ae:	1f 91       	pop	r17
     3b0:	0f 91       	pop	r16
     3b2:	ff 90       	pop	r15
     3b4:	ef 90       	pop	r14
     3b6:	df 90       	pop	r13
     3b8:	cf 90       	pop	r12
     3ba:	bf 90       	pop	r11
     3bc:	af 90       	pop	r10
     3be:	9f 90       	pop	r9
     3c0:	7f 90       	pop	r7
     3c2:	6f 90       	pop	r6
     3c4:	5f 90       	pop	r5
     3c6:	4f 90       	pop	r4
     3c8:	08 95       	ret

000003ca <delay>:
delay():
C:\Users\user\AppData\Local\Arduino15\packages\MiniCore\hardware\avr\3.0.0\cores\MCUdude_corefiles/wiring.c:396
#endif
#endif // 0
}

void delay(unsigned long ms)
{
     3ca:	8f 92       	push	r8
     3cc:	9f 92       	push	r9
     3ce:	af 92       	push	r10
     3d0:	bf 92       	push	r11
     3d2:	cf 92       	push	r12
     3d4:	df 92       	push	r13
     3d6:	ef 92       	push	r14
     3d8:	ff 92       	push	r15
     3da:	4b 01       	movw	r8, r22
     3dc:	5c 01       	movw	r10, r24
C:\Users\user\AppData\Local\Arduino15\packages\MiniCore\hardware\avr\3.0.0\cores\MCUdude_corefiles/wiring.c:397
  unsigned long start = micros();
     3de:	ad de       	rcall	.-678    	; 0x13a <micros>
     3e0:	6b 01       	movw	r12, r22
     3e2:	7c 01       	movw	r14, r24
C:\Users\user\AppData\Local\Arduino15\packages\MiniCore\hardware\avr\3.0.0\cores\MCUdude_corefiles/wiring.c:401

  while (ms > 0UL) {
    yield();
    while (ms > 0UL && (micros() - start) >= 1000UL) {
     3e4:	aa de       	rcall	.-684    	; 0x13a <micros>
     3e6:	6c 19       	sub	r22, r12
     3e8:	7d 09       	sbc	r23, r13
     3ea:	8e 09       	sbc	r24, r14
     3ec:	9f 09       	sbc	r25, r15
     3ee:	68 3e       	cpi	r22, 0xE8	; 232
     3f0:	73 40       	sbci	r23, 0x03	; 3
     3f2:	81 05       	cpc	r24, r1
     3f4:	91 05       	cpc	r25, r1
     3f6:	b0 f3       	brcs	.-20     	; 0x3e4 <delay+0x1a>
C:\Users\user\AppData\Local\Arduino15\packages\MiniCore\hardware\avr\3.0.0\cores\MCUdude_corefiles/wiring.c:402
      ms--;
     3f8:	21 e0       	ldi	r18, 0x01	; 1
     3fa:	82 1a       	sub	r8, r18
     3fc:	91 08       	sbc	r9, r1
     3fe:	a1 08       	sbc	r10, r1
     400:	b1 08       	sbc	r11, r1
C:\Users\user\AppData\Local\Arduino15\packages\MiniCore\hardware\avr\3.0.0\cores\MCUdude_corefiles/wiring.c:403
      start += 1000UL;
     402:	88 ee       	ldi	r24, 0xE8	; 232
     404:	c8 0e       	add	r12, r24
     406:	83 e0       	ldi	r24, 0x03	; 3
     408:	d8 1e       	adc	r13, r24
     40a:	e1 1c       	adc	r14, r1
     40c:	f1 1c       	adc	r15, r1
C:\Users\user\AppData\Local\Arduino15\packages\MiniCore\hardware\avr\3.0.0\cores\MCUdude_corefiles/wiring.c:401
{
  unsigned long start = micros();

  while (ms > 0UL) {
    yield();
    while (ms > 0UL && (micros() - start) >= 1000UL) {
     40e:	81 14       	cp	r8, r1
     410:	91 04       	cpc	r9, r1
     412:	a1 04       	cpc	r10, r1
     414:	b1 04       	cpc	r11, r1
     416:	31 f7       	brne	.-52     	; 0x3e4 <delay+0x1a>
C:\Users\user\AppData\Local\Arduino15\packages\MiniCore\hardware\avr\3.0.0\cores\MCUdude_corefiles/wiring.c:406
      ms--;
      start += 1000UL;
    }
  }
}
     418:	ff 90       	pop	r15
     41a:	ef 90       	pop	r14
     41c:	df 90       	pop	r13
     41e:	cf 90       	pop	r12
     420:	bf 90       	pop	r11
     422:	af 90       	pop	r10
     424:	9f 90       	pop	r9
     426:	8f 90       	pop	r8
     428:	08 95       	ret

0000042a <PixelController<(EOrder)66, 1, 4294967295ul>::init_binary_dithering()>:
_ZN15PixelControllerIL6EOrder66ELi1ELm4294967295EE21init_binary_ditheringEv():
C:\Users\user\Documents\Arduino\libraries\FastLED\src/controller.h:372

#endif


        /// Set up the values for binary dithering
        void init_binary_dithering() {
     42a:	0f 93       	push	r16
     42c:	1f 93       	push	r17
     42e:	cf 93       	push	r28
     430:	df 93       	push	r29
C:\Users\user\Documents\Arduino\libraries\FastLED\src/controller.h:376
#if !defined(NO_DITHERING) || (NO_DITHERING != 1)
            // R is the digther signal 'counter'.
            static uint8_t R = 0;
            ++R;
     432:	20 91 9f 00 	lds	r18, 0x009F	; 0x80009f <PixelController<(EOrder)66, 1, 4294967295ul>::init_binary_dithering()::R>
     436:	2f 5f       	subi	r18, 0xFF	; 255
C:\Users\user\Documents\Arduino\libraries\FastLED\src/controller.h:381

            // R is wrapped around at 2^ditherBits,
            // so if ditherBits is 2, R will cycle through (0,1,2,3)
            uint8_t ditherBits = VIRTUAL_BITS;
            R &= (0x01 << ditherBits) - 1;
     438:	32 2f       	mov	r19, r18
     43a:	37 70       	andi	r19, 0x07	; 7
     43c:	30 93 9f 00 	sts	0x009F, r19	; 0x80009f <PixelController<(EOrder)66, 1, 4294967295ul>::init_binary_dithering()::R>
C:\Users\user\Documents\Arduino\libraries\FastLED\src/controller.h:390
            // If 'ditherBits' is 2, Q here will cycle through (0,128,64,192)
            uint8_t Q = 0;

            // Reverse bits in a byte
            {
                if(R & 0x01) { Q |= 0x80; }
     440:	20 ff       	sbrs	r18, 0
     442:	2a c0       	rjmp	.+84     	; 0x498 <__stack+0x39>
     444:	20 e8       	ldi	r18, 0x80	; 128
C:\Users\user\Documents\Arduino\libraries\FastLED\src/controller.h:391
                if(R & 0x02) { Q |= 0x40; }
     446:	31 fd       	sbrc	r19, 1
     448:	20 64       	ori	r18, 0x40	; 64
C:\Users\user\Documents\Arduino\libraries\FastLED\src/controller.h:392
                if(R & 0x04) { Q |= 0x20; }
     44a:	34 70       	andi	r19, 0x04	; 4
     44c:	09 f0       	breq	.+2      	; 0x450 <PixelController<(EOrder)66, 1, 4294967295ul>::init_binary_dithering()+0x26>
     44e:	20 62       	ori	r18, 0x20	; 32
C:\Users\user\Documents\Arduino\libraries\FastLED\src/controller.h:405
            // Now we adjust Q to fall in the center of each range,
            // instead of at the start of the range.
            // If ditherBits is 2, Q will be (0, 128, 64, 192) at first,
            // and this adjustment makes it (31, 159, 95, 223).
            if( ditherBits < 8) {
                Q += 0x01 << (7 - ditherBits);
     450:	20 5f       	subi	r18, 0xF0	; 240
     452:	fc 01       	movw	r30, r24
     454:	ec 01       	movw	r28, r24
     456:	23 96       	adiw	r28, 0x03	; 3
C:\Users\user\Documents\Arduino\libraries\FastLED\src/controller.h:415
            // actual dithering.

            // Setup the initial D and E values
            for(int i = 0; i < 3; ++i) {
                    uint8_t s = mScale.raw[i];
                    e[i] = s ? (256/s) + 1 : 0;
     458:	00 e0       	ldi	r16, 0x00	; 0
     45a:	11 e0       	ldi	r17, 0x01	; 1
C:\Users\user\Documents\Arduino\libraries\FastLED\src/controller.h:414
            // which is added to pixel values to affect the
            // actual dithering.

            // Setup the initial D and E values
            for(int i = 0; i < 3; ++i) {
                    uint8_t s = mScale.raw[i];
     45c:	64 85       	ldd	r22, Z+12	; 0x0c
C:\Users\user\Documents\Arduino\libraries\FastLED\src/controller.h:415
                    e[i] = s ? (256/s) + 1 : 0;
     45e:	66 23       	and	r22, r22
     460:	21 f0       	breq	.+8      	; 0x46a <__stack+0xb>
     462:	70 e0       	ldi	r23, 0x00	; 0
     464:	c8 01       	movw	r24, r16
     466:	6b db       	rcall	.-2346   	; 0xfffffb3e <__eeprom_end+0xff7efb3e>
     468:	6f 5f       	subi	r22, 0xFF	; 255
     46a:	61 87       	std	Z+9, r22	; 0x09
scale8():
C:\Users\user\Documents\Arduino\libraries\FastLED\src/lib8tion/scale8.h:93
        "clr __zero_reg__    \n\t"

        : "+a" (i)      /* writes to i */
        : "a"  (scale)  /* uses scale */
        : "r0", "r1"    /* clobbers r0, r1 */
    );
     46c:	32 2f       	mov	r19, r18
     46e:	36 9f       	mul	r19, r22
     470:	03 0e       	add	r0, r19
     472:	30 e0       	ldi	r19, 0x00	; 0
     474:	31 1d       	adc	r19, r1
     476:	11 24       	eor	r1, r1
_ZN15PixelControllerIL6EOrder66ELi1ELm4294967295EE21init_binary_ditheringEv():
C:\Users\user\Documents\Arduino\libraries\FastLED\src/controller.h:418
                    d[i] = scale8(Q, e[i]);
#if (FASTLED_SCALE8_FIXED == 1)
                    if(d[i]) (--d[i]);
     478:	31 11       	cpse	r19, r1
     47a:	10 c0       	rjmp	.+32     	; 0x49c <__stack+0x3d>
C:\Users\user\Documents\Arduino\libraries\FastLED\src/controller.h:416

            // Setup the initial D and E values
            for(int i = 0; i < 3; ++i) {
                    uint8_t s = mScale.raw[i];
                    e[i] = s ? (256/s) + 1 : 0;
                    d[i] = scale8(Q, e[i]);
     47c:	16 82       	std	Z+6, r1	; 0x06
C:\Users\user\Documents\Arduino\libraries\FastLED\src/controller.h:420
#if (FASTLED_SCALE8_FIXED == 1)
                    if(d[i]) (--d[i]);
#endif
                    if(e[i]) --e[i];
     47e:	66 23       	and	r22, r22
     480:	11 f0       	breq	.+4      	; 0x486 <__stack+0x27>
     482:	61 50       	subi	r22, 0x01	; 1
     484:	61 87       	std	Z+9, r22	; 0x09
     486:	31 96       	adiw	r30, 0x01	; 1
C:\Users\user\Documents\Arduino\libraries\FastLED\src/controller.h:413
            // D and E form the "scaled dither signal"
            // which is added to pixel values to affect the
            // actual dithering.

            // Setup the initial D and E values
            for(int i = 0; i < 3; ++i) {
     488:	ec 17       	cp	r30, r28
     48a:	fd 07       	cpc	r31, r29
     48c:	39 f7       	brne	.-50     	; 0x45c <PixelController<(EOrder)66, 1, 4294967295ul>::init_binary_dithering()+0x32>
C:\Users\user\Documents\Arduino\libraries\FastLED\src/controller.h:423
                    if(d[i]) (--d[i]);
#endif
                    if(e[i]) --e[i];
            }
#endif
        }
     48e:	df 91       	pop	r29
     490:	cf 91       	pop	r28
     492:	1f 91       	pop	r17
     494:	0f 91       	pop	r16
     496:	08 95       	ret
C:\Users\user\Documents\Arduino\libraries\FastLED\src/controller.h:386
            R &= (0x01 << ditherBits) - 1;

            // Q is the "unscaled dither signal" itself.
            // It's initialized to the reversed bits of R.
            // If 'ditherBits' is 2, Q here will cycle through (0,128,64,192)
            uint8_t Q = 0;
     498:	20 e0       	ldi	r18, 0x00	; 0
     49a:	d5 cf       	rjmp	.-86     	; 0x446 <PixelController<(EOrder)66, 1, 4294967295ul>::init_binary_dithering()+0x1c>
C:\Users\user\Documents\Arduino\libraries\FastLED\src/controller.h:418
            for(int i = 0; i < 3; ++i) {
                    uint8_t s = mScale.raw[i];
                    e[i] = s ? (256/s) + 1 : 0;
                    d[i] = scale8(Q, e[i]);
#if (FASTLED_SCALE8_FIXED == 1)
                    if(d[i]) (--d[i]);
     49c:	31 50       	subi	r19, 0x01	; 1
     49e:	36 83       	std	Z+6, r19	; 0x06
     4a0:	ee cf       	rjmp	.-36     	; 0x47e <__stack+0x1f>

000004a2 <ClocklessController<(unsigned char)11, 2, 5, 3, (EOrder)66, 0, false, 10>::showPixels(PixelController<(EOrder)66, 1, 4294967295ul>&)>:
_ZN19ClocklessControllerILh11ELi2ELi5ELi3EL6EOrder66ELi0ELb0ELi10EE10showPixelsER15PixelControllerILS0_66ELi1ELm4294967295EE():
C:\Users\user\Documents\Arduino\libraries\FastLED\src/platforms/avr/clockless_trinket.h:120

protected:
	virtual void showPixels(PixelController<RGB_ORDER> & pixels) {
     4a2:	4f 92       	push	r4
     4a4:	5f 92       	push	r5
     4a6:	7f 92       	push	r7
     4a8:	8f 92       	push	r8
     4aa:	9f 92       	push	r9
     4ac:	af 92       	push	r10
     4ae:	bf 92       	push	r11
     4b0:	cf 92       	push	r12
     4b2:	df 92       	push	r13
     4b4:	ef 92       	push	r14
     4b6:	ff 92       	push	r15
     4b8:	0f 93       	push	r16
     4ba:	1f 93       	push	r17
     4bc:	cf 93       	push	r28
     4be:	df 93       	push	r29
     4c0:	2c 01       	movw	r4, r24
     4c2:	eb 01       	movw	r28, r22
wait():
C:\Users\user\Documents\Arduino\libraries\FastLED\src/fastled_delay.h:28

	/// Blocking delay until WAIT time since mark() has passed
	void wait() {
		uint16_t diff;
		do {
			diff = (micros() & 0xFFFF) - mLastMicros;
     4c4:	3a de       	rcall	.-908    	; 0x13a <micros>
     4c6:	f2 01       	movw	r30, r4
     4c8:	27 85       	ldd	r18, Z+15	; 0x0f
     4ca:	30 89       	ldd	r19, Z+16	; 0x10
     4cc:	62 1b       	sub	r22, r18
     4ce:	73 0b       	sbc	r23, r19
C:\Users\user\Documents\Arduino\libraries\FastLED\src/fastled_delay.h:29
		} while(diff < WAIT);
     4d0:	6a 30       	cpi	r22, 0x0A	; 10
     4d2:	71 05       	cpc	r23, r1
     4d4:	b8 f3       	brcs	.-18     	; 0x4c4 <ClocklessController<(unsigned char)11, 2, 5, 3, (EOrder)66, 0, false, 10>::showPixels(PixelController<(EOrder)66, 1, 4294967295ul>&)+0x22>
_ZN19ClocklessControllerILh11ELi2ELi5ELi3EL6EOrder66ELi0ELb0ELi10EE10showPixelsER15PixelControllerILS0_66ELi1ELm4294967295EE():
C:\Users\user\Documents\Arduino\libraries\FastLED\src/platforms/avr/clockless_trinket.h:123

		mWait.wait();
		cli();
     4d6:	f8 94       	cli
C:\Users\user\Documents\Arduino\libraries\FastLED\src/platforms/avr/clockless_trinket.h:125

		if(pixels.mLen > 0) {
     4d8:	8a 81       	ldd	r24, Y+2	; 0x02
     4da:	9b 81       	ldd	r25, Y+3	; 0x03
     4dc:	18 16       	cp	r1, r24
     4de:	19 06       	cpc	r1, r25
     4e0:	0c f0       	brlt	.+2      	; 0x4e4 <ClocklessController<(unsigned char)11, 2, 5, 3, (EOrder)66, 0, false, 10>::showPixels(PixelController<(EOrder)66, 1, 4294967295ul>&)+0x42>
     4e2:	40 c1       	rjmp	.+640    	; 0x764 <L_3833>
showRGBInternal():
C:\Users\user\Documents\Arduino\libraries\FastLED\src/platforms/avr/clockless_trinket.h:361
#define FL_FALLTHROUGH __attribute__ ((fallthrough));

	// This method is made static to force making register Y available to use for data on AVR - if the method is non-static, then
	// gcc will use register Y for the this pointer.
	static void /*__attribute__((optimize("O0")))*/  /*__attribute__ ((always_inline))*/  showRGBInternal(PixelController<RGB_ORDER> & pixels)  {
		uint8_t *data = (uint8_t*)pixels.mData;
     4e4:	e8 81       	ld	r30, Y
     4e6:	f9 81       	ldd	r31, Y+1	; 0x01
C:\Users\user\Documents\Arduino\libraries\FastLED\src/platforms/avr/clockless_trinket.h:367
		data_ptr_t port = FastPin<DATA_PIN>::port();
		data_t mask = FastPin<DATA_PIN>::mask();
		uint8_t scale_base = 0;

		// FASTLED_REGISTER uint8_t *end = data + nLeds;
		data_t hi = *port | mask;
     4e8:	68 b3       	in	r22, 0x18	; 24
     4ea:	86 2e       	mov	r8, r22
     4ec:	68 94       	set
     4ee:	83 f8       	bld	r8, 3
C:\Users\user\Documents\Arduino\libraries\FastLED\src/platforms/avr/clockless_trinket.h:368
		data_t lo = *port & ~mask;
     4f0:	38 b3       	in	r19, 0x18	; 24
     4f2:	37 7f       	andi	r19, 0xF7	; 247
C:\Users\user\Documents\Arduino\libraries\FastLED\src/platforms/avr/clockless_trinket.h:369
		*port = lo;
     4f4:	38 bb       	out	0x18, r19	; 24
_ZN15PixelControllerIL6EOrder66ELi1ELm4294967295EE25preStepFirstByteDitheringEv():
C:\Users\user\Documents\Arduino\libraries\FastLED\src/controller.h:471
                d[2] = e[2] - d[2];
        }

        /// Some chipsets pre-cycle the first byte, which means we want to cycle byte 0's dithering separately
        __attribute__((always_inline)) inline void preStepFirstByteDithering() {
            d[RO(0)] = e[RO(0)] - d[RO(0)];
     4f6:	da 84       	ldd	r13, Y+10	; 0x0a
     4f8:	8f 81       	ldd	r24, Y+7	; 0x07
     4fa:	2d 2d       	mov	r18, r13
     4fc:	28 1b       	sub	r18, r24
     4fe:	82 2f       	mov	r24, r18
     500:	2f 83       	std	Y+7, r18	; 0x07
_ZN15PixelControllerIL6EOrder66ELi1ELm4294967295EE9advanceByEv():
C:\Users\user\Documents\Arduino\libraries\FastLED\src/controller.h:454
        /// @returns LANES from template
        __attribute__((always_inline)) inline int lanes() { return LANES; }

        /// Get the amount to advance the pointer by
        /// @returns PixelController::mAdvance
        __attribute__((always_inline)) inline int advanceBy() { return mAdvance; }
     502:	4f 85       	ldd	r20, Y+15	; 0x0f
     504:	04 2e       	mov	r0, r20
     506:	00 0c       	add	r0, r0
     508:	55 0b       	sbc	r21, r21
showRGBInternal():
C:\Users\user\Documents\Arduino\libraries\FastLED\src/platforms/avr/clockless_trinket.h:383

		// pull the dithering/adjustment values out of the pixels object for direct asm access

		// even though advanceBy is only an int8, we cast it to int16 for sign extension in case it's negative.
		int16_t advanceBy = pixels.advanceBy();
		uint16_t count = pixels.mLen;
     50a:	aa 81       	ldd	r26, Y+2	; 0x02
     50c:	bb 81       	ldd	r27, Y+3	; 0x03
C:\Users\user\Documents\Arduino\libraries\FastLED\src/platforms/avr/clockless_trinket.h:385

		uint8_t s0 = pixels.mScale.raw[RO(0)];
     50e:	7d 85       	ldd	r23, Y+13	; 0x0d
C:\Users\user\Documents\Arduino\libraries\FastLED\src/platforms/avr/clockless_trinket.h:386
		uint8_t s1 = pixels.mScale.raw[RO(1)];
     510:	fc 84       	ldd	r15, Y+12	; 0x0c
C:\Users\user\Documents\Arduino\libraries\FastLED\src/platforms/avr/clockless_trinket.h:387
		uint8_t s2 = pixels.mScale.raw[RO(2)];
     512:	ee 84       	ldd	r14, Y+14	; 0x0e
C:\Users\user\Documents\Arduino\libraries\FastLED\src/platforms/avr/clockless_trinket.h:389
#if (FASTLED_SCALE8_FIXED==1)
		s0++; s1++; s2++;
     514:	7f 5f       	subi	r23, 0xFF	; 255
     516:	f3 94       	inc	r15
     518:	e3 94       	inc	r14
C:\Users\user\Documents\Arduino\libraries\FastLED\src/platforms/avr/clockless_trinket.h:392
#endif
		uint8_t d0 = pixels.d[RO(0)];
		uint8_t d1 = pixels.d[RO(1)];
     51a:	9e 81       	ldd	r25, Y+6	; 0x06
C:\Users\user\Documents\Arduino\libraries\FastLED\src/platforms/avr/clockless_trinket.h:393
		uint8_t d2 = pixels.d[RO(2)];
     51c:	98 84       	ldd	r9, Y+8	; 0x08
C:\Users\user\Documents\Arduino\libraries\FastLED\src/platforms/avr/clockless_trinket.h:395
		uint8_t e0 = pixels.e[RO(0)];
		uint8_t e1 = pixels.e[RO(1)];
     51e:	b9 84       	ldd	r11, Y+9	; 0x09
C:\Users\user\Documents\Arduino\libraries\FastLED\src/platforms/avr/clockless_trinket.h:396
		uint8_t e2 = pixels.e[RO(2)];
     520:	ab 84       	ldd	r10, Y+11	; 0x0b
C:\Users\user\Documents\Arduino\libraries\FastLED\src/platforms/avr/clockless_trinket.h:401

		uint8_t loopvar=0;

		// This has to be done in asm to keep gcc from messing up the asm code further down
		b0 = data[RO(0)];
     522:	11 81       	ldd	r17, Z+1	; 0x01
C:\Users\user\Documents\Arduino\libraries\FastLED\src/platforms/avr/clockless_trinket.h:403
		{
			LDSCL4(b0,O0) 	PRESCALEA2(d0)
     524:	c1 2c       	mov	r12, r1
     526:	6c 2d       	mov	r22, r12
     528:	0c 2d       	mov	r16, r12
     52a:	2c 2d       	mov	r18, r12
     52c:	21 81       	ldd	r18, Z+1	; 0x01
     52e:	11 27       	eor	r17, r17
     530:	88 94       	clc
     532:	21 11       	cpse	r18, r1
     534:	28 0f       	add	r18, r24
C:\Users\user\Documents\Arduino\libraries\FastLED\src/platforms/avr/clockless_trinket.h:404
			PRESCALEB4(d0)	SCALE02(b0,0)
     536:	08 f4       	brcc	.+2      	; 0x53a <L_1084>
     538:	2f ef       	ldi	r18, 0xFF	; 255

0000053a <L_1084>:
     53a:	81 95       	neg	r24
     53c:	88 94       	clc
     53e:	70 fd       	sbrc	r23, 0
     540:	12 0f       	add	r17, r18
C:\Users\user\Documents\Arduino\libraries\FastLED\src/platforms/avr/clockless_trinket.h:405
			RORSC04(b0,1) 	ROR1(b0) CLC1
     542:	17 95       	ror	r17
     544:	88 94       	clc
     546:	71 fd       	sbrc	r23, 1
     548:	12 0f       	add	r17, r18
     54a:	17 95       	ror	r17
     54c:	88 94       	clc
C:\Users\user\Documents\Arduino\libraries\FastLED\src/platforms/avr/clockless_trinket.h:406
			SCROR04(b0,2)		SCALE02(b0,3)
     54e:	72 fd       	sbrc	r23, 2
     550:	12 0f       	add	r17, r18
     552:	17 95       	ror	r17
     554:	88 94       	clc
     556:	73 fd       	sbrc	r23, 3
     558:	12 0f       	add	r17, r18
C:\Users\user\Documents\Arduino\libraries\FastLED\src/platforms/avr/clockless_trinket.h:407
			RORSC04(b0,4) 	ROR1(b0) CLC1
     55a:	17 95       	ror	r17
     55c:	88 94       	clc
     55e:	74 fd       	sbrc	r23, 4
     560:	12 0f       	add	r17, r18
     562:	17 95       	ror	r17
     564:	88 94       	clc
C:\Users\user\Documents\Arduino\libraries\FastLED\src/platforms/avr/clockless_trinket.h:408
			SCROR04(b0,5) 	SCALE02(b0,6)
     566:	75 fd       	sbrc	r23, 5
     568:	12 0f       	add	r17, r18
     56a:	17 95       	ror	r17
     56c:	88 94       	clc
     56e:	76 fd       	sbrc	r23, 6
     570:	12 0f       	add	r17, r18
C:\Users\user\Documents\Arduino\libraries\FastLED\src/platforms/avr/clockless_trinket.h:409
			RORSC04(b0,7) 	ROR1(b0) CLC1
     572:	17 95       	ror	r17
     574:	88 94       	clc
     576:	77 fd       	sbrc	r23, 7
     578:	12 0f       	add	r17, r18
     57a:	17 95       	ror	r17
     57c:	88 94       	clc
C:\Users\user\Documents\Arduino\libraries\FastLED\src/platforms/avr/clockless_trinket.h:410
			MOV_ADDDE04(b1,b0,d0,e0)
     57e:	62 2f       	mov	r22, r18
     580:	71 11       	cpse	r23, r1
     582:	61 2f       	mov	r22, r17
     584:	8d 0d       	add	r24, r13
C:\Users\user\Documents\Arduino\libraries\FastLED\src/platforms/avr/clockless_trinket.h:411
			MOV1(b0,b1)
     586:	16 2f       	mov	r17, r22
C:\Users\user\Documents\Arduino\libraries\FastLED\src/platforms/avr/clockless_trinket.h:418

		{
			// while(--count)
			{
				// Loop beginning
				DNOP;
     588:	00 2c       	mov	r0, r0
C:\Users\user\Documents\Arduino\libraries\FastLED\src/platforms/avr/clockless_trinket.h:432
				// out.  When doing byte 1, we're doing the above for byte 2.  When we're doing byte 2,
				// we're cycling back around and doing the above for byte 0.

				// Inline scaling - RGB ordering
				// DNOP
				HI1 _D1(1) QLO2(b0, 7) LDSCL4(b1,O1) 	_D2(4)	LO1	PRESCALEA2(d1)	_D3(2)
     58a:	88 ba       	out	0x18, r8	; 24
     58c:	17 ff       	sbrs	r17, 7
     58e:	38 bb       	out	0x18, r19	; 24
     590:	20 81       	ld	r18, Z
     592:	66 27       	eor	r22, r22
     594:	88 94       	clc
     596:	38 bb       	out	0x18, r19	; 24
     598:	21 11       	cpse	r18, r1
     59a:	29 0f       	add	r18, r25
C:\Users\user\Documents\Arduino\libraries\FastLED\src/platforms/avr/clockless_trinket.h:433
				HI1 _D1(1) QLO2(b0, 6) PRESCALEB4(d1)	_D2(4)	LO1	SCALE12(b1,0)	_D3(2)
     59c:	88 ba       	out	0x18, r8	; 24
     59e:	16 ff       	sbrs	r17, 6
     5a0:	38 bb       	out	0x18, r19	; 24
     5a2:	08 f4       	brcc	.+2      	; 0x5a6 <L_1560>
     5a4:	2f ef       	ldi	r18, 0xFF	; 255

000005a6 <L_1560>:
     5a6:	91 95       	neg	r25
     5a8:	88 94       	clc
     5aa:	38 bb       	out	0x18, r19	; 24
     5ac:	f0 fc       	sbrc	r15, 0
     5ae:	62 0f       	add	r22, r18
C:\Users\user\Documents\Arduino\libraries\FastLED\src/platforms/avr/clockless_trinket.h:434
				HI1 _D1(1) QLO2(b0, 5) RORSC14(b1,1) 	_D2(4)	LO1 RORCLC2(b1)		_D3(2)
     5b0:	88 ba       	out	0x18, r8	; 24
     5b2:	15 ff       	sbrs	r17, 5
     5b4:	38 bb       	out	0x18, r19	; 24
     5b6:	67 95       	ror	r22
     5b8:	88 94       	clc
     5ba:	f1 fc       	sbrc	r15, 1
     5bc:	62 0f       	add	r22, r18
     5be:	38 bb       	out	0x18, r19	; 24
     5c0:	67 95       	ror	r22
     5c2:	88 94       	clc
C:\Users\user\Documents\Arduino\libraries\FastLED\src/platforms/avr/clockless_trinket.h:435
				HI1 _D1(1) QLO2(b0, 4) SCROR14(b1,2)	_D2(4)	LO1 SCALE12(b1,3)	_D3(2)
     5c4:	88 ba       	out	0x18, r8	; 24
     5c6:	14 ff       	sbrs	r17, 4
     5c8:	38 bb       	out	0x18, r19	; 24
     5ca:	f2 fc       	sbrc	r15, 2
     5cc:	62 0f       	add	r22, r18
     5ce:	67 95       	ror	r22
     5d0:	88 94       	clc
     5d2:	38 bb       	out	0x18, r19	; 24
     5d4:	f3 fc       	sbrc	r15, 3
     5d6:	62 0f       	add	r22, r18
C:\Users\user\Documents\Arduino\libraries\FastLED\src/platforms/avr/clockless_trinket.h:436
				HI1 _D1(1) QLO2(b0, 3) RORSC14(b1,4) 	_D2(4)	LO1 RORCLC2(b1) 	_D3(2)
     5d8:	88 ba       	out	0x18, r8	; 24
     5da:	13 ff       	sbrs	r17, 3
     5dc:	38 bb       	out	0x18, r19	; 24
     5de:	67 95       	ror	r22
     5e0:	88 94       	clc
     5e2:	f4 fc       	sbrc	r15, 4
     5e4:	62 0f       	add	r22, r18
     5e6:	38 bb       	out	0x18, r19	; 24
     5e8:	67 95       	ror	r22
     5ea:	88 94       	clc
C:\Users\user\Documents\Arduino\libraries\FastLED\src/platforms/avr/clockless_trinket.h:437
				HI1 _D1(1) QLO2(b0, 2) SCROR14(b1,5) 	_D2(4)	LO1 SCALE12(b1,6)	_D3(2)
     5ec:	88 ba       	out	0x18, r8	; 24
     5ee:	12 ff       	sbrs	r17, 2
     5f0:	38 bb       	out	0x18, r19	; 24
     5f2:	f5 fc       	sbrc	r15, 5
     5f4:	62 0f       	add	r22, r18
     5f6:	67 95       	ror	r22
     5f8:	88 94       	clc
     5fa:	38 bb       	out	0x18, r19	; 24
     5fc:	f6 fc       	sbrc	r15, 6
     5fe:	62 0f       	add	r22, r18
C:\Users\user\Documents\Arduino\libraries\FastLED\src/platforms/avr/clockless_trinket.h:438
				HI1 _D1(1) QLO2(b0, 1) RORSC14(b1,7) 	_D2(4)	LO1 RORCLC2(b1) 	_D3(2)
     600:	88 ba       	out	0x18, r8	; 24
     602:	11 ff       	sbrs	r17, 1
     604:	38 bb       	out	0x18, r19	; 24
     606:	67 95       	ror	r22
     608:	88 94       	clc
     60a:	f7 fc       	sbrc	r15, 7
     60c:	62 0f       	add	r22, r18
     60e:	38 bb       	out	0x18, r19	; 24
     610:	67 95       	ror	r22
     612:	88 94       	clc
C:\Users\user\Documents\Arduino\libraries\FastLED\src/platforms/avr/clockless_trinket.h:439
				HI1 _D1(1) QLO2(b0, 0)
     614:	88 ba       	out	0x18, r8	; 24
     616:	10 ff       	sbrs	r17, 0
     618:	38 bb       	out	0x18, r19	; 24
C:\Users\user\Documents\Arduino\libraries\FastLED\src/platforms/avr/clockless_trinket.h:446
					case 4: _D2(0) LO1 _D3(0) HI1 _D1(1) QLO2(b0,0)  /* fall through */
					case 3: _D2(0) LO1 _D3(0) HI1 _D1(1) QLO2(b0,0)  /* fall through */
					case 2: _D2(0) LO1 _D3(0) HI1 _D1(1) QLO2(b0,0)  /* fall through */
					case 1: _D2(0) LO1 _D3(0) HI1 _D1(1) QLO2(b0,0)
				}
				MOV_ADDDE14(b0,b1,d1,e1) _D2(4) LO1 _D3(0)
     61a:	12 2f       	mov	r17, r18
     61c:	f1 10       	cpse	r15, r1
     61e:	16 2f       	mov	r17, r22
     620:	9b 0d       	add	r25, r11
     622:	38 bb       	out	0x18, r19	; 24
_Z3_dcILi2EEvRh():
C:\Users\user\Documents\Arduino\libraries\FastLED\src/platforms/avr/clockless_trinket.h:55
template<> __attribute__((always_inline)) inline void _dc< 0>(FASTLED_REGISTER uint8_t & ) {}
template<> __attribute__((always_inline)) inline void _dc< 1>(FASTLED_REGISTER uint8_t & ) {asm __volatile__("mov r0,r0":::);}
#if defined(__LGT8F__) 
template<> __attribute__((always_inline)) inline void _dc< 2>(FASTLED_REGISTER uint8_t & loopvar) { _dc<1>(loopvar); _dc<1>(loopvar); }
#else
template<> __attribute__((always_inline)) inline void _dc< 2>(FASTLED_REGISTER uint8_t & ) {asm __volatile__("rjmp .+0":::);}
     624:	00 c0       	rjmp	.+0      	; 0x626 <L_1560+0x80>
showRGBInternal():
C:\Users\user\Documents\Arduino\libraries\FastLED\src/platforms/avr/clockless_trinket.h:448
					case 2: _D2(0) LO1 _D3(0) HI1 _D1(1) QLO2(b0,0)  /* fall through */
					case 1: _D2(0) LO1 _D3(0) HI1 _D1(1) QLO2(b0,0)
				}
				MOV_ADDDE14(b0,b1,d1,e1) _D2(4) LO1 _D3(0)

				HI1 _D1(1) QLO2(b0, 7) LDSCL4(b1,O2) 	_D2(4)	LO1	PRESCALEA2(d2)	_D3(2)
     626:	88 ba       	out	0x18, r8	; 24
     628:	17 ff       	sbrs	r17, 7
     62a:	38 bb       	out	0x18, r19	; 24
     62c:	22 81       	ldd	r18, Z+2	; 0x02
     62e:	66 27       	eor	r22, r22
     630:	88 94       	clc
     632:	38 bb       	out	0x18, r19	; 24
     634:	21 11       	cpse	r18, r1
     636:	29 0d       	add	r18, r9
C:\Users\user\Documents\Arduino\libraries\FastLED\src/platforms/avr/clockless_trinket.h:449
				HI1 _D1(1) QLO2(b0, 6) PSBIDATA4(d2)	_D2(4)	LO1	SCALE22(b1,0)	_D3(2)
     638:	88 ba       	out	0x18, r8	; 24
     63a:	16 ff       	sbrs	r17, 6
     63c:	38 bb       	out	0x18, r19	; 24
     63e:	08 f4       	brcc	.+2      	; 0x642 <L_2365>
     640:	2f ef       	ldi	r18, 0xFF	; 255

00000642 <L_2365>:
     642:	e4 0f       	add	r30, r20
     644:	f5 1f       	adc	r31, r21
     646:	38 bb       	out	0x18, r19	; 24
     648:	e0 fc       	sbrc	r14, 0
     64a:	62 0f       	add	r22, r18
C:\Users\user\Documents\Arduino\libraries\FastLED\src/platforms/avr/clockless_trinket.h:450
				HI1 _D1(1) QLO2(b0, 5) RORSC24(b1,1) 	_D2(4)	LO1 RORCLC2(b1) 	_D3(2)
     64c:	88 ba       	out	0x18, r8	; 24
     64e:	15 ff       	sbrs	r17, 5
     650:	38 bb       	out	0x18, r19	; 24
     652:	67 95       	ror	r22
     654:	88 94       	clc
     656:	e1 fc       	sbrc	r14, 1
     658:	62 0f       	add	r22, r18
     65a:	38 bb       	out	0x18, r19	; 24
     65c:	67 95       	ror	r22
     65e:	88 94       	clc
C:\Users\user\Documents\Arduino\libraries\FastLED\src/platforms/avr/clockless_trinket.h:451
				HI1 _D1(1) QLO2(b0, 4) SCROR24(b1,2)	_D2(4)	LO1 SCALE22(b1,3)	_D3(2)
     660:	88 ba       	out	0x18, r8	; 24
     662:	14 ff       	sbrs	r17, 4
     664:	38 bb       	out	0x18, r19	; 24
     666:	e2 fc       	sbrc	r14, 2
     668:	62 0f       	add	r22, r18
     66a:	67 95       	ror	r22
     66c:	88 94       	clc
     66e:	38 bb       	out	0x18, r19	; 24
     670:	e3 fc       	sbrc	r14, 3
     672:	62 0f       	add	r22, r18
C:\Users\user\Documents\Arduino\libraries\FastLED\src/platforms/avr/clockless_trinket.h:452
				HI1 _D1(1) QLO2(b0, 3) RORSC24(b1,4) 	_D2(4)	LO1 RORCLC2(b1) 	_D3(2)
     674:	88 ba       	out	0x18, r8	; 24
     676:	13 ff       	sbrs	r17, 3
     678:	38 bb       	out	0x18, r19	; 24
     67a:	67 95       	ror	r22
     67c:	88 94       	clc
     67e:	e4 fc       	sbrc	r14, 4
     680:	62 0f       	add	r22, r18
     682:	38 bb       	out	0x18, r19	; 24
     684:	67 95       	ror	r22
     686:	88 94       	clc
C:\Users\user\Documents\Arduino\libraries\FastLED\src/platforms/avr/clockless_trinket.h:453
				HI1 _D1(1) QLO2(b0, 2) SCROR24(b1,5) 	_D2(4)	LO1 SCALE22(b1,6)	_D3(2)
     688:	88 ba       	out	0x18, r8	; 24
     68a:	12 ff       	sbrs	r17, 2
     68c:	38 bb       	out	0x18, r19	; 24
     68e:	e5 fc       	sbrc	r14, 5
     690:	62 0f       	add	r22, r18
     692:	67 95       	ror	r22
     694:	88 94       	clc
     696:	38 bb       	out	0x18, r19	; 24
     698:	e6 fc       	sbrc	r14, 6
     69a:	62 0f       	add	r22, r18
C:\Users\user\Documents\Arduino\libraries\FastLED\src/platforms/avr/clockless_trinket.h:454
				HI1 _D1(1) QLO2(b0, 1) RORSC24(b1,7) 	_D2(4)	LO1 RORCLC2(b1) 	_D3(2)
     69c:	88 ba       	out	0x18, r8	; 24
     69e:	11 ff       	sbrs	r17, 1
     6a0:	38 bb       	out	0x18, r19	; 24
     6a2:	67 95       	ror	r22
     6a4:	88 94       	clc
     6a6:	e7 fc       	sbrc	r14, 7
     6a8:	62 0f       	add	r22, r18
     6aa:	38 bb       	out	0x18, r19	; 24
     6ac:	67 95       	ror	r22
     6ae:	88 94       	clc
C:\Users\user\Documents\Arduino\libraries\FastLED\src/platforms/avr/clockless_trinket.h:455
				HI1 _D1(1) QLO2(b0, 0)
     6b0:	88 ba       	out	0x18, r8	; 24
     6b2:	10 ff       	sbrs	r17, 0
     6b4:	38 bb       	out	0x18, r19	; 24
C:\Users\user\Documents\Arduino\libraries\FastLED\src/platforms/avr/clockless_trinket.h:466
				}

				// Because Prescale on the middle byte also increments the data counter,
				// we have to do both halves of updating d2 here - negating it (in the
				// MOV_NEGD24 macro) and then adding E back into it
				MOV_NEGD24(b0,b1,d2) _D2(4) LO1 ADDDE1(d2,e2) _D3(1)
     6b6:	12 2f       	mov	r17, r18
     6b8:	e1 10       	cpse	r14, r1
     6ba:	16 2f       	mov	r17, r22
     6bc:	91 94       	neg	r9
     6be:	38 bb       	out	0x18, r19	; 24
     6c0:	9a 0c       	add	r9, r10
_Z3_dcILi1EEvRh():
C:\Users\user\Documents\Arduino\libraries\FastLED\src/platforms/avr/clockless_trinket.h:51
template<> __attribute__((always_inline)) inline void _dc<-4>(FASTLED_REGISTER uint8_t & ) {}
template<> __attribute__((always_inline)) inline void _dc<-3>(FASTLED_REGISTER uint8_t & ) {}
template<> __attribute__((always_inline)) inline void _dc<-2>(FASTLED_REGISTER uint8_t & ) {}
template<> __attribute__((always_inline)) inline void _dc<-1>(FASTLED_REGISTER uint8_t & ) {}
template<> __attribute__((always_inline)) inline void _dc< 0>(FASTLED_REGISTER uint8_t & ) {}
template<> __attribute__((always_inline)) inline void _dc< 1>(FASTLED_REGISTER uint8_t & ) {asm __volatile__("mov r0,r0":::);}
     6c2:	00 2c       	mov	r0, r0
showRGBInternal():
C:\Users\user\Documents\Arduino\libraries\FastLED\src/platforms/avr/clockless_trinket.h:467

				// Because Prescale on the middle byte also increments the data counter,
				// we have to do both halves of updating d2 here - negating it (in the
				// MOV_NEGD24 macro) and then adding E back into it
				MOV_NEGD24(b0,b1,d2) _D2(4) LO1 ADDDE1(d2,e2) _D3(1)
				HI1 _D1(1) QLO2(b0, 7) LDSCL4(b1,O0) 	_D2(4)	LO1	PRESCALEA2(d0)	_D3(2)
     6c4:	88 ba       	out	0x18, r8	; 24
     6c6:	17 ff       	sbrs	r17, 7
     6c8:	38 bb       	out	0x18, r19	; 24
     6ca:	21 81       	ldd	r18, Z+1	; 0x01
     6cc:	66 27       	eor	r22, r22
     6ce:	88 94       	clc
     6d0:	38 bb       	out	0x18, r19	; 24
     6d2:	21 11       	cpse	r18, r1
     6d4:	28 0f       	add	r18, r24
C:\Users\user\Documents\Arduino\libraries\FastLED\src/platforms/avr/clockless_trinket.h:468
				HI1 _D1(1) QLO2(b0, 6) PRESCALEB4(d0)	_D2(4)	LO1	SCALE02(b1,0)	_D3(2)
     6d6:	88 ba       	out	0x18, r8	; 24
     6d8:	16 ff       	sbrs	r17, 6
     6da:	38 bb       	out	0x18, r19	; 24
     6dc:	08 f4       	brcc	.+2      	; 0x6e0 <L_3187>
     6de:	2f ef       	ldi	r18, 0xFF	; 255

000006e0 <L_3187>:
     6e0:	81 95       	neg	r24
     6e2:	88 94       	clc
     6e4:	38 bb       	out	0x18, r19	; 24
     6e6:	70 fd       	sbrc	r23, 0
     6e8:	62 0f       	add	r22, r18
C:\Users\user\Documents\Arduino\libraries\FastLED\src/platforms/avr/clockless_trinket.h:469
				HI1 _D1(1) QLO2(b0, 5) RORSC04(b1,1) 	_D2(4)	LO1 RORCLC2(b1) 	_D3(2)
     6ea:	88 ba       	out	0x18, r8	; 24
     6ec:	15 ff       	sbrs	r17, 5
     6ee:	38 bb       	out	0x18, r19	; 24
     6f0:	67 95       	ror	r22
     6f2:	88 94       	clc
     6f4:	71 fd       	sbrc	r23, 1
     6f6:	62 0f       	add	r22, r18
     6f8:	38 bb       	out	0x18, r19	; 24
     6fa:	67 95       	ror	r22
     6fc:	88 94       	clc
C:\Users\user\Documents\Arduino\libraries\FastLED\src/platforms/avr/clockless_trinket.h:470
				HI1 _D1(1) QLO2(b0, 4) SCROR04(b1,2)	_D2(4)	LO1 SCALE02(b1,3)	_D3(2)
     6fe:	88 ba       	out	0x18, r8	; 24
     700:	14 ff       	sbrs	r17, 4
     702:	38 bb       	out	0x18, r19	; 24
     704:	72 fd       	sbrc	r23, 2
     706:	62 0f       	add	r22, r18
     708:	67 95       	ror	r22
     70a:	88 94       	clc
     70c:	38 bb       	out	0x18, r19	; 24
     70e:	73 fd       	sbrc	r23, 3
     710:	62 0f       	add	r22, r18
C:\Users\user\Documents\Arduino\libraries\FastLED\src/platforms/avr/clockless_trinket.h:471
				HI1 _D1(1) QLO2(b0, 3) RORSC04(b1,4) 	_D2(4)	LO1 RORCLC2(b1)  	_D3(2)
     712:	88 ba       	out	0x18, r8	; 24
     714:	13 ff       	sbrs	r17, 3
     716:	38 bb       	out	0x18, r19	; 24
     718:	67 95       	ror	r22
     71a:	88 94       	clc
     71c:	74 fd       	sbrc	r23, 4
     71e:	62 0f       	add	r22, r18
     720:	38 bb       	out	0x18, r19	; 24
     722:	67 95       	ror	r22
     724:	88 94       	clc
C:\Users\user\Documents\Arduino\libraries\FastLED\src/platforms/avr/clockless_trinket.h:472
				HI1 _D1(1) QLO2(b0, 2) SCROR04(b1,5) 	_D2(4)	LO1 SCALE02(b1,6)	_D3(2)
     726:	88 ba       	out	0x18, r8	; 24
     728:	12 ff       	sbrs	r17, 2
     72a:	38 bb       	out	0x18, r19	; 24
     72c:	75 fd       	sbrc	r23, 5
     72e:	62 0f       	add	r22, r18
     730:	67 95       	ror	r22
     732:	88 94       	clc
     734:	38 bb       	out	0x18, r19	; 24
     736:	76 fd       	sbrc	r23, 6
     738:	62 0f       	add	r22, r18
C:\Users\user\Documents\Arduino\libraries\FastLED\src/platforms/avr/clockless_trinket.h:473
				HI1 _D1(1) QLO2(b0, 1) RORSC04(b1,7) 	_D2(4)	LO1 RORCLC2(b1) 	_D3(2)
     73a:	88 ba       	out	0x18, r8	; 24
     73c:	11 ff       	sbrs	r17, 1
     73e:	38 bb       	out	0x18, r19	; 24
     740:	67 95       	ror	r22
     742:	88 94       	clc
     744:	77 fd       	sbrc	r23, 7
     746:	62 0f       	add	r22, r18
     748:	38 bb       	out	0x18, r19	; 24
     74a:	67 95       	ror	r22
     74c:	88 94       	clc
C:\Users\user\Documents\Arduino\libraries\FastLED\src/platforms/avr/clockless_trinket.h:474
				HI1 _D1(1) QLO2(b0, 0)
     74e:	88 ba       	out	0x18, r8	; 24
     750:	10 ff       	sbrs	r17, 0
     752:	38 bb       	out	0x18, r19	; 24
C:\Users\user\Documents\Arduino\libraries\FastLED\src/platforms/avr/clockless_trinket.h:481
					case 4: _D2(0) LO1 _D3(0) HI1 _D1(1) QLO2(b0,0)  /* fall through */
					case 3: _D2(0) LO1 _D3(0) HI1 _D1(1) QLO2(b0,0)  /* fall through */
					case 2: _D2(0) LO1 _D3(0) HI1 _D1(1) QLO2(b0,0)  /* fall through */
					case 1: _D2(0) LO1 _D3(0) HI1 _D1(1) QLO2(b0,0)
				}
				MOV_ADDDE04(b0,b1,d0,e0) _D2(4) LO1 _D3(5)
     754:	12 2f       	mov	r17, r18
     756:	71 11       	cpse	r23, r1
     758:	16 2f       	mov	r17, r22
     75a:	8d 0d       	add	r24, r13
     75c:	38 bb       	out	0x18, r19	; 24
C:\Users\user\Documents\Arduino\libraries\FastLED\src/platforms/avr/clockless_trinket.h:482
				ENDLOOP5
     75e:	11 97       	sbiw	r26, 0x01	; 1
     760:	09 f0       	breq	.+2      	; 0x764 <L_3833>
     762:	13 cf       	rjmp	.-474    	; 0x58a <L_1084+0x50>

00000764 <L_3833>:
_ZN15PixelControllerIL6EOrder66ELi1ELm4294967295EE4sizeEv():
C:\Users\user\Documents\Arduino\libraries\FastLED\src/controller.h:446
            }
        }

        /// Get the length of the LED strip
        /// @returns PixelController::mLen
        __attribute__((always_inline)) inline int size() { return mLen; }
     764:	ea 81       	ldd	r30, Y+2	; 0x02
     766:	fb 81       	ldd	r31, Y+3	; 0x03
_ZN19ClocklessControllerILh11ELi2ELi5ELi3EL6EOrder66ELi0ELb0ELi10EE10showPixelsER15PixelControllerILS0_66ELi1ELm4294967295EE():
C:\Users\user\Documents\Arduino\libraries\FastLED\src/platforms/avr/clockless_trinket.h:131
			showRGBInternal(pixels);
		}

		// Adjust the timer
#if (!defined(NO_CLOCK_CORRECTION) || (NO_CLOCK_CORRECTION == 0)) && (FASTLED_ALLOW_INTERRUPTS == 0)
        uint32_t microsTaken = (uint32_t)pixels.size() * (uint32_t)CLKS_TO_MICROS(24 * (T1 + T2 + T3));
     768:	20 ef       	ldi	r18, 0xF0	; 240
     76a:	30 e0       	ldi	r19, 0x00	; 0
     76c:	df 01       	movw	r26, r30
     76e:	fa d9       	rcall	.-3084   	; 0xfffffb64 <__eeprom_end+0xff7efb64>
     770:	6b 01       	movw	r12, r22
     772:	7c 01       	movw	r14, r24
     774:	a3 e0       	ldi	r26, 0x03	; 3
     776:	f6 94       	lsr	r15
     778:	e7 94       	ror	r14
     77a:	d7 94       	ror	r13
     77c:	c7 94       	ror	r12
     77e:	aa 95       	dec	r26
     780:	d1 f7       	brne	.-12     	; 0x776 <L_3833+0x12>
scale16by8():
C:\Users\user\Documents\Arduino\libraries\FastLED\src/lib8tion/scale8.h:508
        "  adc %B[result], __zero_reg__        \n\t"

        : [result] "+r" (result)
        : [i] "r" (i), [scale] "r" (scale)
        : "r0", "r1"
    );
     782:	30 e0       	ldi	r19, 0x00	; 0
     784:	20 e0       	ldi	r18, 0x00	; 0
     786:	a9 01       	movw	r20, r18
     788:	8a e9       	ldi	r24, 0x9A	; 154
     78a:	e8 9f       	mul	r30, r24
     78c:	0e 0e       	add	r0, r30
     78e:	41 1d       	adc	r20, r1
     790:	f8 9f       	mul	r31, r24
     792:	40 0d       	add	r20, r0
     794:	51 1d       	adc	r21, r1
     796:	11 24       	eor	r1, r1
     798:	4f 0f       	add	r20, r31
     79a:	51 1d       	adc	r21, r1
_ZN19ClocklessControllerILh11ELi2ELi5ELi3EL6EOrder66ELi0ELb0ELi10EE10showPixelsER15PixelControllerILS0_66ELi1ELm4294967295EE():
C:\Users\user\Documents\Arduino\libraries\FastLED\src/platforms/avr/clockless_trinket.h:136

        // adust for approximate observed actal runtime (as of January 2015)
        // roughly 9.6 cycles per pixel, which is 0.6us/pixel at 16MHz
        // microsTaken += nLeds * 0.6 * CLKS_TO_MICROS(16);
        microsTaken += scale16by8(pixels.size(),(0.6 * 256) + 1) * CLKS_TO_MICROS(16);
     79c:	ca 01       	movw	r24, r20
     79e:	b0 e0       	ldi	r27, 0x00	; 0
     7a0:	a0 e0       	ldi	r26, 0x00	; 0
     7a2:	88 0f       	add	r24, r24
     7a4:	99 1f       	adc	r25, r25
     7a6:	aa 1f       	adc	r26, r26
     7a8:	bb 1f       	adc	r27, r27
     7aa:	8c 0d       	add	r24, r12
     7ac:	9d 1d       	adc	r25, r13
     7ae:	ae 1d       	adc	r26, r14
     7b0:	bf 1d       	adc	r27, r15
C:\Users\user\Documents\Arduino\libraries\FastLED\src/platforms/avr/clockless_trinket.h:144
        // this is because the ONE interrupt that might come in while interrupts
        // are disabled is queued up, and it will be serviced as soon as
        // interrupts are re-enabled.
        // This actually should technically also account for the runtime of the
        // interrupt handler itself, but we're just not going to worry about that.
        if( microsTaken > 1000) {
     7b2:	89 3e       	cpi	r24, 0xE9	; 233
     7b4:	43 e0       	ldi	r20, 0x03	; 3
     7b6:	94 07       	cpc	r25, r20
     7b8:	a1 05       	cpc	r26, r1
     7ba:	b1 05       	cpc	r27, r1
     7bc:	08 f4       	brcc	.+2      	; 0x7c0 <L_3833+0x5c>
     7be:	34 c0       	rjmp	.+104    	; 0x828 <L_3833+0xc4>
C:\Users\user\Documents\Arduino\libraries\FastLED\src/platforms/avr/clockless_trinket.h:148

            // Since up to one timer tick will be queued, we don't need
            // to adjust the MS_COUNTER for that one.
            microsTaken -= 1000;
     7c0:	88 5e       	subi	r24, 0xE8	; 232
     7c2:	93 40       	sbci	r25, 0x03	; 3
     7c4:	a1 09       	sbc	r26, r1
     7c6:	b1 09       	sbc	r27, r1
C:\Users\user\Documents\Arduino\libraries\FastLED\src/platforms/avr/clockless_trinket.h:153

            // Now convert microseconds to 256ths of a second, approximately like this:
            // 250ths = (us/4)
            // 256ths = 250ths * (263/256);
            uint16_t x256ths = microsTaken >> 2;
     7c8:	42 e0       	ldi	r20, 0x02	; 2
     7ca:	b6 95       	lsr	r27
     7cc:	a7 95       	ror	r26
     7ce:	97 95       	ror	r25
     7d0:	87 95       	ror	r24
     7d2:	4a 95       	dec	r20
     7d4:	d1 f7       	brne	.-12     	; 0x7ca <L_3833+0x66>
scale16by8():
C:\Users\user\Documents\Arduino\libraries\FastLED\src/lib8tion/scale8.h:508
     7d6:	47 e0       	ldi	r20, 0x07	; 7
     7d8:	84 9f       	mul	r24, r20
     7da:	08 0e       	add	r0, r24
     7dc:	21 1d       	adc	r18, r1
     7de:	94 9f       	mul	r25, r20
     7e0:	20 0d       	add	r18, r0
     7e2:	31 1d       	adc	r19, r1
     7e4:	11 24       	eor	r1, r1
     7e6:	29 0f       	add	r18, r25
     7e8:	31 1d       	adc	r19, r1
_ZN19ClocklessControllerILh11ELi2ELi5ELi3EL6EOrder66ELi0ELb0ELi10EE10showPixelsER15PixelControllerILS0_66ELi1ELm4294967295EE():
C:\Users\user\Documents\Arduino\libraries\FastLED\src/platforms/avr/clockless_trinket.h:156
            x256ths += scale16by8(x256ths,7);

            x256ths += gTimeErrorAccum256ths;
     7ea:	60 91 9e 00 	lds	r22, 0x009E	; 0x80009e <__data_end>
     7ee:	70 e0       	ldi	r23, 0x00	; 0
     7f0:	86 0f       	add	r24, r22
     7f2:	97 1f       	adc	r25, r23
     7f4:	82 0f       	add	r24, r18
     7f6:	93 1f       	adc	r25, r19
C:\Users\user\Documents\Arduino\libraries\FastLED\src/platforms/avr/clockless_trinket.h:157
            MS_COUNTER += (x256ths >> 8);
     7f8:	40 91 1d 01 	lds	r20, 0x011D	; 0x80011d <timer0_millis>
     7fc:	50 91 1e 01 	lds	r21, 0x011E	; 0x80011e <timer0_millis+0x1>
     800:	60 91 1f 01 	lds	r22, 0x011F	; 0x80011f <timer0_millis+0x2>
     804:	70 91 20 01 	lds	r23, 0x0120	; 0x800120 <timer0_millis+0x3>
     808:	29 2f       	mov	r18, r25
     80a:	33 27       	eor	r19, r19
     80c:	42 0f       	add	r20, r18
     80e:	53 1f       	adc	r21, r19
     810:	61 1d       	adc	r22, r1
     812:	71 1d       	adc	r23, r1
     814:	40 93 1d 01 	sts	0x011D, r20	; 0x80011d <timer0_millis>
     818:	50 93 1e 01 	sts	0x011E, r21	; 0x80011e <timer0_millis+0x1>
     81c:	60 93 1f 01 	sts	0x011F, r22	; 0x80011f <timer0_millis+0x2>
     820:	70 93 20 01 	sts	0x0120, r23	; 0x800120 <timer0_millis+0x3>
C:\Users\user\Documents\Arduino\libraries\FastLED\src/platforms/avr/clockless_trinket.h:158
            gTimeErrorAccum256ths = x256ths & 0xFF;
     824:	80 93 9e 00 	sts	0x009E, r24	; 0x80009e <__data_end>
C:\Users\user\Documents\Arduino\libraries\FastLED\src/platforms/avr/clockless_trinket.h:178
        MS_COUNTER += (microsTaken >> 10);
#endif

#endif

		sei();
     828:	78 94       	sei
mark():
C:\Users\user\Documents\Arduino\libraries\FastLED\src/fastled_delay.h:33
	}

	/// Reset the timestamp that marks the start of the wait period
	void mark() { mLastMicros = micros() & 0xFFFF; }
     82a:	87 dc       	rcall	.-1778   	; 0x13a <micros>
     82c:	f2 01       	movw	r30, r4
     82e:	70 8b       	std	Z+16, r23	; 0x10
     830:	67 87       	std	Z+15, r22	; 0x0f
_ZN19ClocklessControllerILh11ELi2ELi5ELi3EL6EOrder66ELi0ELb0ELi10EE10showPixelsER15PixelControllerILS0_66ELi1ELm4294967295EE():
C:\Users\user\Documents\Arduino\libraries\FastLED\src/platforms/avr/clockless_trinket.h:180
		mWait.mark();
	}
     832:	df 91       	pop	r29
     834:	cf 91       	pop	r28
     836:	1f 91       	pop	r17
     838:	0f 91       	pop	r16
     83a:	ff 90       	pop	r15
     83c:	ef 90       	pop	r14
     83e:	df 90       	pop	r13
     840:	cf 90       	pop	r12
     842:	bf 90       	pop	r11
     844:	af 90       	pop	r10
     846:	9f 90       	pop	r9
     848:	8f 90       	pop	r8
     84a:	7f 90       	pop	r7
     84c:	5f 90       	pop	r5
     84e:	4f 90       	pop	r4
     850:	08 95       	ret

00000852 <CLEDController::lanes()>:
_ZN14CLEDController5lanesEv():
C:\Users\user\Documents\Arduino\libraries\FastLED\src/controller.h:169
    /// @returns CLEDController::m_nLeds
    virtual int size() { return m_nLeds; }

    /// How many Lanes does this controller manage?
    /// @returns 1 for a non-Parallel controller
    virtual int lanes() { return 1; }
     852:	81 e0       	ldi	r24, 0x01	; 1
     854:	90 e0       	ldi	r25, 0x00	; 0
     856:	08 95       	ret

00000858 <ClocklessController<(unsigned char)11, 2, 5, 3, (EOrder)66, 0, false, 10>::init()>:
_ZN19ClocklessControllerILh11ELi2ELi5ELi3EL6EOrder66ELi0ELb0ELi10EE4initEv():
C:\Users\user\Documents\Arduino\libraries\FastLED\src/platforms/avr/fastpin_avr.h:22
template<uint8_t PIN, uint8_t _MASK, typename _PORT, typename _DDR, typename _PIN> class _AVRPIN {
public:
	typedef volatile uint8_t * port_ptr_t;
	typedef uint8_t port_t;

	inline static void setOutput() { _DDR::r() |= _MASK; }
     858:	bb 9a       	sbi	0x17, 3	; 23
C:\Users\user\Documents\Arduino\libraries\FastLED\src/platforms/avr/clockless_trinket.h:115
	CMinWait<WAIT_TIME> mWait;

public:
	virtual void init() {
		FastPin<DATA_PIN>::setOutput();
	}
     85a:	08 95       	ret

0000085c <CPixelLEDController<(EOrder)66, 1, 4294967295ul>::show(CRGB const*, int, CRGB)>:
_ZN19CPixelLEDControllerIL6EOrder66ELi1ELm4294967295EE4showEPK4CRGBiS2_():
C:\Users\user\Documents\Arduino\libraries\FastLED\src/controller.h:635

    /// Write the passed in RGB data out to the LEDs managed by this controller
    /// @param data the RGB data to write out to the strip
    /// @param nLeds the number of LEDs being written out
    /// @param scale the RGB scaling to apply to each LED before writing it out
    virtual void show(const struct CRGB *data, int nLeds, CRGB scale) {
     85c:	6f 92       	push	r6
     85e:	7f 92       	push	r7
     860:	8f 92       	push	r8
     862:	cf 92       	push	r12
     864:	df 92       	push	r13
     866:	ef 92       	push	r14
     868:	ff 92       	push	r15
     86a:	0f 93       	push	r16
     86c:	1f 93       	push	r17
     86e:	cf 93       	push	r28
     870:	df 93       	push	r29
     872:	cd b7       	in	r28, 0x3d	; 61
     874:	de b7       	in	r29, 0x3e	; 62
     876:	62 97       	sbiw	r28, 0x12	; 18
     878:	0f b6       	in	r0, 0x3f	; 63
     87a:	f8 94       	cli
     87c:	de bf       	out	0x3e, r29	; 62
     87e:	0f be       	out	0x3f, r0	; 63
     880:	cd bf       	out	0x3d, r28	; 61
     882:	6c 01       	movw	r12, r24
     884:	7a 01       	movw	r14, r20
     886:	38 01       	movw	r6, r16
     888:	82 2e       	mov	r8, r18
     88a:	dc 01       	movw	r26, r24
     88c:	1c 96       	adiw	r26, 0x0c	; 12
     88e:	2c 91       	ld	r18, X
C:\Users\user\Documents\Arduino\libraries\FastLED\src/controller.h:636
        PixelController<RGB_ORDER, LANES, MASK> pixels(data, nLeds < 0 ? -nLeds : nLeds, scale, getDither());
     890:	ca 01       	movw	r24, r20
     892:	57 ff       	sbrs	r21, 7
     894:	04 c0       	rjmp	.+8      	; 0x89e <CPixelLEDController<(EOrder)66, 1, 4294967295ul>::show(CRGB const*, int, CRGB)+0x42>
     896:	88 27       	eor	r24, r24
     898:	99 27       	eor	r25, r25
     89a:	84 1b       	sub	r24, r20
     89c:	95 0b       	sbc	r25, r21
__base_ctor ():
C:\Users\user\Documents\Arduino\libraries\FastLED\src/controller.h:314
        /// Constructor
        /// @param d pointer to LED data
        /// @param len length of the LED data
        /// @param s LED scale values, as CRGB struct
        /// @param dither dither setting for the LEDs
        PixelController(const CRGB *d, int len, CRGB & s, EDitherMode dither = BINARY_DITHER) : mData((const uint8_t*)d), mLen(len), mLenRemaining(len), mScale(s) {
     89e:	7a 83       	std	Y+2, r23	; 0x02
     8a0:	69 83       	std	Y+1, r22	; 0x01
     8a2:	9c 83       	std	Y+4, r25	; 0x04
     8a4:	8b 83       	std	Y+3, r24	; 0x03
     8a6:	9e 83       	std	Y+6, r25	; 0x06
     8a8:	8d 83       	std	Y+5, r24	; 0x05
     8aa:	6d 86       	std	Y+13, r6	; 0x0d
     8ac:	7e 86       	std	Y+14, r7	; 0x0e
     8ae:	8f 86       	std	Y+15, r8	; 0x0f
enable_dithering():
C:\Users\user\Documents\Arduino\libraries\FastLED\src/controller.h:438
        /// If dithering is set to enabled, this will re-init the dithering values
        /// (init_binary_dithering()). Otherwise it will clear the stored dithering
        /// data.
        /// @param dither the dither setting
        void enable_dithering(EDitherMode dither) {
            switch(dither) {
     8b0:	21 30       	cpi	r18, 0x01	; 1
     8b2:	41 f5       	brne	.+80     	; 0x904 <CPixelLEDController<(EOrder)66, 1, 4294967295ul>::show(CRGB const*, int, CRGB)+0xa8>
C:\Users\user\Documents\Arduino\libraries\FastLED\src/controller.h:439
                case BINARY_DITHER: init_binary_dithering(); break;
     8b4:	ce 01       	movw	r24, r28
     8b6:	01 96       	adiw	r24, 0x01	; 1
     8b8:	b8 dd       	rcall	.-1168   	; 0x42a <PixelController<(EOrder)66, 1, 4294967295ul>::init_binary_dithering()>
__base_ctor ():
C:\Users\user\Documents\Arduino\libraries\FastLED\src/controller.h:316
        /// @param len length of the LED data
        /// @param s LED scale values, as CRGB struct
        /// @param dither dither setting for the LEDs
        PixelController(const CRGB *d, int len, CRGB & s, EDitherMode dither = BINARY_DITHER) : mData((const uint8_t*)d), mLen(len), mLenRemaining(len), mScale(s) {
            enable_dithering(dither);
            mAdvance = 3;
     8ba:	83 e0       	ldi	r24, 0x03	; 3
     8bc:	88 8b       	std	Y+16, r24	; 0x10
initOffsets():
C:\Users\user\Documents\Arduino\libraries\FastLED\src/controller.h:290
        /// Initialize the PixelController::mOffsets array based on the length of the strip
        /// @param len the number of LEDs in one lane of the strip
        void initOffsets(int len) {
          int nOffset = 0;
          for(int i = 0; i < LANES; ++i) {
            mOffsets[i] = nOffset;
     8be:	1a 8a       	std	Y+18, r1	; 0x12
     8c0:	19 8a       	std	Y+17, r1	; 0x11
_ZN19CPixelLEDControllerIL6EOrder66ELi1ELm4294967295EE4showEPK4CRGBiS2_():
C:\Users\user\Documents\Arduino\libraries\FastLED\src/controller.h:637
    /// @param data the RGB data to write out to the strip
    /// @param nLeds the number of LEDs being written out
    /// @param scale the RGB scaling to apply to each LED before writing it out
    virtual void show(const struct CRGB *data, int nLeds, CRGB scale) {
        PixelController<RGB_ORDER, LANES, MASK> pixels(data, nLeds < 0 ? -nLeds : nLeds, scale, getDither());
        if(nLeds < 0) {
     8c2:	f7 fe       	sbrs	r15, 7
     8c4:	02 c0       	rjmp	.+4      	; 0x8ca <CPixelLEDController<(EOrder)66, 1, 4294967295ul>::show(CRGB const*, int, CRGB)+0x6e>
C:\Users\user\Documents\Arduino\libraries\FastLED\src/controller.h:639
            // nLeds < 0 implies that we want to show them in reverse
            pixels.mAdvance = -pixels.mAdvance;
     8c6:	8d ef       	ldi	r24, 0xFD	; 253
     8c8:	88 8b       	std	Y+16, r24	; 0x10
C:\Users\user\Documents\Arduino\libraries\FastLED\src/controller.h:641
        }
        showPixels(pixels);
     8ca:	d6 01       	movw	r26, r12
     8cc:	ed 91       	ld	r30, X+
     8ce:	fc 91       	ld	r31, X
     8d0:	06 84       	ldd	r0, Z+14	; 0x0e
     8d2:	f7 85       	ldd	r31, Z+15	; 0x0f
     8d4:	e0 2d       	mov	r30, r0
     8d6:	be 01       	movw	r22, r28
     8d8:	6f 5f       	subi	r22, 0xFF	; 255
     8da:	7f 4f       	sbci	r23, 0xFF	; 255
     8dc:	c6 01       	movw	r24, r12
     8de:	09 95       	icall
C:\Users\user\Documents\Arduino\libraries\FastLED\src/controller.h:642
    }
     8e0:	62 96       	adiw	r28, 0x12	; 18
     8e2:	0f b6       	in	r0, 0x3f	; 63
     8e4:	f8 94       	cli
     8e6:	de bf       	out	0x3e, r29	; 62
     8e8:	0f be       	out	0x3f, r0	; 63
     8ea:	cd bf       	out	0x3d, r28	; 61
     8ec:	df 91       	pop	r29
     8ee:	cf 91       	pop	r28
     8f0:	1f 91       	pop	r17
     8f2:	0f 91       	pop	r16
     8f4:	ff 90       	pop	r15
     8f6:	ef 90       	pop	r14
     8f8:	df 90       	pop	r13
     8fa:	cf 90       	pop	r12
     8fc:	8f 90       	pop	r8
     8fe:	7f 90       	pop	r7
     900:	6f 90       	pop	r6
     902:	08 95       	ret
enable_dithering():
C:\Users\user\Documents\Arduino\libraries\FastLED\src/controller.h:440
        /// data.
        /// @param dither the dither setting
        void enable_dithering(EDitherMode dither) {
            switch(dither) {
                case BINARY_DITHER: init_binary_dithering(); break;
                default: d[0]=d[1]=d[2]=e[0]=e[1]=e[2]=0; break;
     904:	1c 86       	std	Y+12, r1	; 0x0c
     906:	1b 86       	std	Y+11, r1	; 0x0b
     908:	1a 86       	std	Y+10, r1	; 0x0a
     90a:	19 86       	std	Y+9, r1	; 0x09
     90c:	18 86       	std	Y+8, r1	; 0x08
     90e:	1f 82       	std	Y+7, r1	; 0x07
     910:	d4 cf       	rjmp	.-88     	; 0x8ba <CPixelLEDController<(EOrder)66, 1, 4294967295ul>::show(CRGB const*, int, CRGB)+0x5e>

00000912 <CPixelLEDController<(EOrder)66, 1, 4294967295ul>::showColor(CRGB const&, int, CRGB)>:
_ZN19CPixelLEDControllerIL6EOrder66ELi1ELm4294967295EE9showColorERK4CRGBiS2_():
C:\Users\user\Documents\Arduino\libraries\FastLED\src/controller.h:626

    /// Set all the LEDs on the controller to a given color
    /// @param data the CRGB color to set the LEDs to
    /// @param nLeds the number of LEDs to set to this color
    /// @param scale the RGB scaling value for outputting color
    virtual void showColor(const struct CRGB & data, int nLeds, CRGB scale) {
     912:	ef 92       	push	r14
     914:	ff 92       	push	r15
     916:	0f 93       	push	r16
     918:	1f 93       	push	r17
     91a:	cf 93       	push	r28
     91c:	df 93       	push	r29
     91e:	cd b7       	in	r28, 0x3d	; 61
     920:	de b7       	in	r29, 0x3e	; 62
     922:	62 97       	sbiw	r28, 0x12	; 18
     924:	0f b6       	in	r0, 0x3f	; 63
     926:	f8 94       	cli
     928:	de bf       	out	0x3e, r29	; 62
     92a:	0f be       	out	0x3f, r0	; 63
     92c:	cd bf       	out	0x3d, r28	; 61
     92e:	7c 01       	movw	r14, r24
     930:	dc 01       	movw	r26, r24
     932:	1c 96       	adiw	r26, 0x0c	; 12
     934:	8c 91       	ld	r24, X
__base_ctor ():
C:\Users\user\Documents\Arduino\libraries\FastLED\src/controller.h:325
        /// Constructor
        /// @param d pointer to LED data
        /// @param len length of the LED data
        /// @param s LED scale values, as CRGB struct
        /// @param dither dither setting for the LEDs
        PixelController(const CRGB &d, int len, CRGB & s, EDitherMode dither = BINARY_DITHER) : mData((const uint8_t*)&d), mLen(len), mLenRemaining(len), mScale(s) {
     936:	7a 83       	std	Y+2, r23	; 0x02
     938:	69 83       	std	Y+1, r22	; 0x01
     93a:	5c 83       	std	Y+4, r21	; 0x04
     93c:	4b 83       	std	Y+3, r20	; 0x03
     93e:	5e 83       	std	Y+6, r21	; 0x06
     940:	4d 83       	std	Y+5, r20	; 0x05
     942:	0d 87       	std	Y+13, r16	; 0x0d
     944:	1e 87       	std	Y+14, r17	; 0x0e
     946:	2f 87       	std	Y+15, r18	; 0x0f
enable_dithering():
C:\Users\user\Documents\Arduino\libraries\FastLED\src/controller.h:438
        /// If dithering is set to enabled, this will re-init the dithering values
        /// (init_binary_dithering()). Otherwise it will clear the stored dithering
        /// data.
        /// @param dither the dither setting
        void enable_dithering(EDitherMode dither) {
            switch(dither) {
     948:	81 30       	cpi	r24, 0x01	; 1
     94a:	f1 f4       	brne	.+60     	; 0x988 <CPixelLEDController<(EOrder)66, 1, 4294967295ul>::showColor(CRGB const&, int, CRGB)+0x76>
C:\Users\user\Documents\Arduino\libraries\FastLED\src/controller.h:439
                case BINARY_DITHER: init_binary_dithering(); break;
     94c:	ce 01       	movw	r24, r28
     94e:	01 96       	adiw	r24, 0x01	; 1
     950:	6c dd       	rcall	.-1320   	; 0x42a <PixelController<(EOrder)66, 1, 4294967295ul>::init_binary_dithering()>
__base_ctor ():
C:\Users\user\Documents\Arduino\libraries\FastLED\src/controller.h:327
        /// @param len length of the LED data
        /// @param s LED scale values, as CRGB struct
        /// @param dither dither setting for the LEDs
        PixelController(const CRGB &d, int len, CRGB & s, EDitherMode dither = BINARY_DITHER) : mData((const uint8_t*)&d), mLen(len), mLenRemaining(len), mScale(s) {
            enable_dithering(dither);
            mAdvance = 0;
     952:	18 8a       	std	Y+16, r1	; 0x10
initOffsets():
C:\Users\user\Documents\Arduino\libraries\FastLED\src/controller.h:290
        /// Initialize the PixelController::mOffsets array based on the length of the strip
        /// @param len the number of LEDs in one lane of the strip
        void initOffsets(int len) {
          int nOffset = 0;
          for(int i = 0; i < LANES; ++i) {
            mOffsets[i] = nOffset;
     954:	1a 8a       	std	Y+18, r1	; 0x12
     956:	19 8a       	std	Y+17, r1	; 0x11
_ZN19CPixelLEDControllerIL6EOrder66ELi1ELm4294967295EE9showColorERK4CRGBiS2_():
C:\Users\user\Documents\Arduino\libraries\FastLED\src/controller.h:628
    /// @param data the CRGB color to set the LEDs to
    /// @param nLeds the number of LEDs to set to this color
    /// @param scale the RGB scaling value for outputting color
    virtual void showColor(const struct CRGB & data, int nLeds, CRGB scale) {
        PixelController<RGB_ORDER, LANES, MASK> pixels(data, nLeds, scale, getDither());
        showPixels(pixels);
     958:	d7 01       	movw	r26, r14
     95a:	ed 91       	ld	r30, X+
     95c:	fc 91       	ld	r31, X
     95e:	06 84       	ldd	r0, Z+14	; 0x0e
     960:	f7 85       	ldd	r31, Z+15	; 0x0f
     962:	e0 2d       	mov	r30, r0
     964:	be 01       	movw	r22, r28
     966:	6f 5f       	subi	r22, 0xFF	; 255
     968:	7f 4f       	sbci	r23, 0xFF	; 255
     96a:	c7 01       	movw	r24, r14
     96c:	09 95       	icall
C:\Users\user\Documents\Arduino\libraries\FastLED\src/controller.h:629
    }
     96e:	62 96       	adiw	r28, 0x12	; 18
     970:	0f b6       	in	r0, 0x3f	; 63
     972:	f8 94       	cli
     974:	de bf       	out	0x3e, r29	; 62
     976:	0f be       	out	0x3f, r0	; 63
     978:	cd bf       	out	0x3d, r28	; 61
     97a:	df 91       	pop	r29
     97c:	cf 91       	pop	r28
     97e:	1f 91       	pop	r17
     980:	0f 91       	pop	r16
     982:	ff 90       	pop	r15
     984:	ef 90       	pop	r14
     986:	08 95       	ret
enable_dithering():
C:\Users\user\Documents\Arduino\libraries\FastLED\src/controller.h:440
        /// data.
        /// @param dither the dither setting
        void enable_dithering(EDitherMode dither) {
            switch(dither) {
                case BINARY_DITHER: init_binary_dithering(); break;
                default: d[0]=d[1]=d[2]=e[0]=e[1]=e[2]=0; break;
     988:	1c 86       	std	Y+12, r1	; 0x0c
     98a:	1b 86       	std	Y+11, r1	; 0x0b
     98c:	1a 86       	std	Y+10, r1	; 0x0a
     98e:	19 86       	std	Y+9, r1	; 0x09
     990:	18 86       	std	Y+8, r1	; 0x08
     992:	1f 82       	std	Y+7, r1	; 0x07
     994:	de cf       	rjmp	.-68     	; 0x952 <CPixelLEDController<(EOrder)66, 1, 4294967295ul>::showColor(CRGB const&, int, CRGB)+0x40>

00000996 <RampInit()>:
_Z8RampInitv():
C:\Users\user\Desktop\LedDriver\LedDriver2/LedDriver2.ino:520
		leds[iLed] = color; 
	}
}

void RampInit()	{
	for(Vect[0] = 0, i=1; i < NUM_LEDS; i++)	{ Vect[i] = Vect[i-1]+255/NUM_LEDS;};
     996:	10 92 c0 00 	sts	0x00C0, r1	; 0x8000c0 <Vect>
     99a:	e0 ec       	ldi	r30, 0xC0	; 192
     99c:	f0 e0       	ldi	r31, 0x00	; 0
     99e:	94 e1       	ldi	r25, 0x14	; 20
     9a0:	91 50       	subi	r25, 0x01	; 1
     9a2:	21 f0       	breq	.+8      	; 0x9ac <RampInit()+0x16>
     9a4:	81 91       	ld	r24, Z+
     9a6:	84 5f       	subi	r24, 0xF4	; 244
     9a8:	80 83       	st	Z, r24
     9aa:	fa cf       	rjmp	.-12     	; 0x9a0 <RampInit()+0xa>
     9ac:	84 e1       	ldi	r24, 0x14	; 20
     9ae:	80 93 1c 01 	sts	0x011C, r24	; 0x80011c <i>
C:\Users\user\Desktop\LedDriver\LedDriver2/LedDriver2.ino:521
     9b2:	08 95       	ret

000009b4 <ColorLeds(CRGB)>:
_Z9ColorLeds4CRGB():
C:\Users\user\Desktop\LedDriver\LedDriver2/LedDriver2.ino:513
		else if	(ColorSwitch == BlueDD)		{TempColor = CRGB(0, 0, Vect[TempIndex]);}
		leds[iLed] = TempColor;
	}
}

void ColorLeds(CRGB color)	{
     9b4:	cf 92       	push	r12
     9b6:	df 92       	push	r13
     9b8:	ef 92       	push	r14
     9ba:	6b 01       	movw	r12, r22
     9bc:	e8 2e       	mov	r14, r24
C:\Users\user\Desktop\LedDriver\LedDriver2/LedDriver2.ino:514
	for (iLed=0; iLed<NUM_LEDS; iLed++) {
     9be:	10 92 d4 00 	sts	0x00D4, r1	; 0x8000d4 <iLed>
     9c2:	80 91 d4 00 	lds	r24, 0x00D4	; 0x8000d4 <iLed>
     9c6:	84 31       	cpi	r24, 0x14	; 20
     9c8:	80 f4       	brcc	.+32     	; 0x9ea <ColorLeds(CRGB)+0x36>
C:\Users\user\Desktop\LedDriver\LedDriver2/LedDriver2.ino:515
		leds[iLed] = color; 
     9ca:	28 2f       	mov	r18, r24
     9cc:	30 e0       	ldi	r19, 0x00	; 0
     9ce:	f9 01       	movw	r30, r18
     9d0:	ee 0f       	add	r30, r30
     9d2:	ff 1f       	adc	r31, r31
     9d4:	e2 0f       	add	r30, r18
     9d6:	f3 1f       	adc	r31, r19
     9d8:	eb 52       	subi	r30, 0x2B	; 43
     9da:	ff 4f       	sbci	r31, 0xFF	; 255
     9dc:	c0 82       	st	Z, r12
     9de:	d1 82       	std	Z+1, r13	; 0x01
     9e0:	e2 82       	std	Z+2, r14	; 0x02
C:\Users\user\Desktop\LedDriver\LedDriver2/LedDriver2.ino:514
		leds[iLed] = TempColor;
	}
}

void ColorLeds(CRGB color)	{
	for (iLed=0; iLed<NUM_LEDS; iLed++) {
     9e2:	8f 5f       	subi	r24, 0xFF	; 255
     9e4:	80 93 d4 00 	sts	0x00D4, r24	; 0x8000d4 <iLed>
     9e8:	ec cf       	rjmp	.-40     	; 0x9c2 <ColorLeds(CRGB)+0xe>
C:\Users\user\Desktop\LedDriver\LedDriver2/LedDriver2.ino:517
		leds[iLed] = color; 
	}
}
     9ea:	ef 90       	pop	r14
     9ec:	df 90       	pop	r13
     9ee:	cf 90       	pop	r12
     9f0:	08 95       	ret

000009f2 <ShiftLed(unsigned char)>:
_Z8ShiftLedh():
C:\Users\user\Desktop\LedDriver\LedDriver2/LedDriver2.ino:502

void ShiftLed(uint8_t ColorSwitch)	{
	CRGB TempColor;
	uint8_t TempIndex;
	for (iLed=0; iLed<NUM_LEDS; iLed++) {
		TempIndex = iLed + iFrame;
     9f2:	50 91 19 01 	lds	r21, 0x0119	; 0x800119 <iFrame>
     9f6:	a5 ed       	ldi	r26, 0xD5	; 213
     9f8:	b0 e0       	ldi	r27, 0x00	; 0
     9fa:	90 e0       	ldi	r25, 0x00	; 0
     9fc:	e5 2f       	mov	r30, r21
     9fe:	e9 0f       	add	r30, r25
C:\Users\user\Desktop\LedDriver\LedDriver2/LedDriver2.ino:503
		while(TempIndex >= NUM_LEDS)	{ 
     a00:	e4 31       	cpi	r30, 0x14	; 20
     a02:	10 f0       	brcs	.+4      	; 0xa08 <ShiftLed(unsigned char)+0x16>
C:\Users\user\Desktop\LedDriver\LedDriver2/LedDriver2.ino:504
			TempIndex = TempIndex - NUM_LEDS;
     a04:	e4 51       	subi	r30, 0x14	; 20
     a06:	fc cf       	rjmp	.-8      	; 0xa00 <ShiftLed(unsigned char)+0xe>
     a08:	f0 e0       	ldi	r31, 0x00	; 0
     a0a:	e0 54       	subi	r30, 0x40	; 64
     a0c:	ff 4f       	sbci	r31, 0xFF	; 255
     a0e:	20 81       	ld	r18, Z
C:\Users\user\Desktop\LedDriver\LedDriver2/LedDriver2.ino:506
		}
		if		(ColorSwitch == RedDD)		{TempColor = CRGB(Vect[TempIndex], 0, 0);}
     a10:	30 e0       	ldi	r19, 0x00	; 0
     a12:	40 e0       	ldi	r20, 0x00	; 0
     a14:	88 23       	and	r24, r24
     a16:	39 f0       	breq	.+14     	; 0xa26 <ShiftLed(unsigned char)+0x34>
C:\Users\user\Desktop\LedDriver\LedDriver2/LedDriver2.ino:508
		else if	(ColorSwitch == GreenDD)	{TempColor = CRGB(0, Vect[TempIndex], 0);}
		else if	(ColorSwitch == BlueDD)		{TempColor = CRGB(0, 0, Vect[TempIndex]);}
     a18:	32 2f       	mov	r19, r18
     a1a:	40 e0       	ldi	r20, 0x00	; 0
C:\Users\user\Desktop\LedDriver\LedDriver2/LedDriver2.ino:507
		TempIndex = iLed + iFrame;
		while(TempIndex >= NUM_LEDS)	{ 
			TempIndex = TempIndex - NUM_LEDS;
		}
		if		(ColorSwitch == RedDD)		{TempColor = CRGB(Vect[TempIndex], 0, 0);}
		else if	(ColorSwitch == GreenDD)	{TempColor = CRGB(0, Vect[TempIndex], 0);}
     a1c:	81 30       	cpi	r24, 0x01	; 1
     a1e:	11 f4       	brne	.+4      	; 0xa24 <ShiftLed(unsigned char)+0x32>
     a20:	42 2f       	mov	r20, r18
     a22:	30 e0       	ldi	r19, 0x00	; 0
     a24:	20 e0       	ldi	r18, 0x00	; 0
C:\Users\user\Desktop\LedDriver\LedDriver2/LedDriver2.ino:509
		else if	(ColorSwitch == BlueDD)		{TempColor = CRGB(0, 0, Vect[TempIndex]);}
		leds[iLed] = TempColor;
     a26:	2c 93       	st	X, r18
     a28:	11 96       	adiw	r26, 0x01	; 1
     a2a:	4c 93       	st	X, r20
     a2c:	11 97       	sbiw	r26, 0x01	; 1
     a2e:	12 96       	adiw	r26, 0x02	; 2
     a30:	3c 93       	st	X, r19
     a32:	12 97       	sbiw	r26, 0x02	; 2
C:\Users\user\Desktop\LedDriver\LedDriver2/LedDriver2.ino:501
}

void ShiftLed(uint8_t ColorSwitch)	{
	CRGB TempColor;
	uint8_t TempIndex;
	for (iLed=0; iLed<NUM_LEDS; iLed++) {
     a34:	9f 5f       	subi	r25, 0xFF	; 255
     a36:	13 96       	adiw	r26, 0x03	; 3
     a38:	94 31       	cpi	r25, 0x14	; 20
     a3a:	01 f7       	brne	.-64     	; 0x9fc <ShiftLed(unsigned char)+0xa>
     a3c:	90 93 d4 00 	sts	0x00D4, r25	; 0x8000d4 <iLed>
C:\Users\user\Desktop\LedDriver\LedDriver2/LedDriver2.ino:511
		if		(ColorSwitch == RedDD)		{TempColor = CRGB(Vect[TempIndex], 0, 0);}
		else if	(ColorSwitch == GreenDD)	{TempColor = CRGB(0, Vect[TempIndex], 0);}
		else if	(ColorSwitch == BlueDD)		{TempColor = CRGB(0, 0, Vect[TempIndex]);}
		leds[iLed] = TempColor;
	}
}
     a40:	08 95       	ret

00000a42 <CLEDController::getMaxRefreshRate() const>:
_ZNK14CLEDController17getMaxRefreshRateEv():
C:\Users\user\Documents\Arduino\libraries\FastLED\src/controller.h:249
      #endif
    }

    /// Gets the maximum possible refresh rate of the strip
    /// @returns the maximum refresh rate, in frames per second (FPS)
    virtual uint16_t getMaxRefreshRate() const { return 0; }
     a42:	90 e0       	ldi	r25, 0x00	; 0
     a44:	80 e0       	ldi	r24, 0x00	; 0
     a46:	08 95       	ret

00000a48 <CLEDController::size()>:
_ZN14CLEDController4sizeEv():
C:\Users\user\Documents\Arduino\libraries\FastLED\src/controller.h:165
        }
    }

    /// How many LEDs does this controller manage?
    /// @returns CLEDController::m_nLeds
    virtual int size() { return m_nLeds; }
     a48:	fc 01       	movw	r30, r24
     a4a:	85 85       	ldd	r24, Z+13	; 0x0d
     a4c:	96 85       	ldd	r25, Z+14	; 0x0e
     a4e:	08 95       	ret

00000a50 <CLEDController::clearLeds(int)>:
_ZN14CLEDController9clearLedsEi():
C:\Users\user\Documents\Arduino\libraries\FastLED\src/controller.h:99
    /// Initialize the LED controller
    virtual void init() = 0;

    /// Clear out/zero out the given number of LEDs.
    /// @param nLeds the number of LEDs to clear
    virtual void clearLeds(int nLeds) { showColor(CRGB::Black, nLeds, CRGB::Black); }
     a50:	0f 93       	push	r16
     a52:	1f 93       	push	r17
     a54:	cf 93       	push	r28
     a56:	df 93       	push	r29
     a58:	00 d0       	rcall	.+0      	; 0xa5a <CLEDController::clearLeds(int)+0xa>
     a5a:	1f 92       	push	r1
     a5c:	cd b7       	in	r28, 0x3d	; 61
     a5e:	de b7       	in	r29, 0x3e	; 62
     a60:	ab 01       	movw	r20, r22
_ZN4CRGBC2Em():
C:\Users\user\Documents\Arduino\libraries\FastLED\src/pixeltypes.h:176
    }

    /// Allow construction from 32-bit (really 24-bit) bit 0xRRGGBB color code
    /// @param colorcode a packed 24 bit color code
    inline CRGB( uint32_t colorcode)  __attribute__((always_inline))
    : r((colorcode >> 16) & 0xFF), g((colorcode >> 8) & 0xFF), b((colorcode >> 0) & 0xFF)
     a62:	19 82       	std	Y+1, r1	; 0x01
     a64:	1a 82       	std	Y+2, r1	; 0x02
     a66:	1b 82       	std	Y+3, r1	; 0x03
showColor():
C:\Users\user\Documents\Arduino\libraries\FastLED\src/controller.h:120
    /// @param data the CRGB color to set the LEDs to
    /// @param nLeds the number of LEDs in the data array
    /// @param brightness the brightness of the LEDs
    /// @see showColor(const struct CRGB&, int, CRGB)
    void showColor(const struct CRGB &data, int nLeds, uint8_t brightness) {
        showColor(data, nLeds, getAdjustment(brightness));
     a68:	dc 01       	movw	r26, r24
     a6a:	ed 91       	ld	r30, X+
     a6c:	fc 91       	ld	r31, X
     a6e:	01 90       	ld	r0, Z+
     a70:	f0 81       	ld	r31, Z
     a72:	e0 2d       	mov	r30, r0
     a74:	00 e0       	ldi	r16, 0x00	; 0
     a76:	10 e0       	ldi	r17, 0x00	; 0
     a78:	20 e0       	ldi	r18, 0x00	; 0
     a7a:	be 01       	movw	r22, r28
     a7c:	6f 5f       	subi	r22, 0xFF	; 255
     a7e:	7f 4f       	sbci	r23, 0xFF	; 255
     a80:	09 95       	icall
_ZN14CLEDController9clearLedsEi():
C:\Users\user\Documents\Arduino\libraries\FastLED\src/controller.h:99
    /// Initialize the LED controller
    virtual void init() = 0;

    /// Clear out/zero out the given number of LEDs.
    /// @param nLeds the number of LEDs to clear
    virtual void clearLeds(int nLeds) { showColor(CRGB::Black, nLeds, CRGB::Black); }
     a82:	0f 90       	pop	r0
     a84:	0f 90       	pop	r0
     a86:	0f 90       	pop	r0
     a88:	df 91       	pop	r29
     a8a:	cf 91       	pop	r28
     a8c:	1f 91       	pop	r17
     a8e:	0f 91       	pop	r16
     a90:	08 95       	ret

00000a92 <__cxa_pure_virtual>:
__cxa_pure_virtual():
C:\Users\user\AppData\Local\Arduino15\packages\MiniCore\hardware\avr\3.0.0\cores\MCUdude_corefiles/abi.cpp:26
extern "C" void __cxa_pure_virtual(void) __attribute__ ((__noreturn__));
extern "C" void __cxa_deleted_virtual(void) __attribute__ ((__noreturn__));

namespace std {
  [[gnu::weak, noreturn]] void terminate() {
    abort();
     a92:	88 d8       	rcall	.-3824   	; 0xfffffba4 <__eeprom_end+0xff7efba4>

00000a94 <__vector_9>:
__vector_9():
C:\Users\user\AppData\Local\Arduino15\packages\MiniCore\hardware\avr\3.0.0\cores\MCUdude_corefiles/wiring.c:159
#if defined(__AVR_ATtiny24__) || defined(__AVR_ATtiny44__) || defined(__AVR_ATtiny84__)
ISR(TIM0_OVF_vect)
#else
ISR(TIMER0_OVF_vect)
#endif
{
     a94:	1f 92       	push	r1
     a96:	0f 92       	push	r0
     a98:	0f b6       	in	r0, 0x3f	; 63
     a9a:	0f 92       	push	r0
     a9c:	11 24       	eor	r1, r1
     a9e:	2f 93       	push	r18
     aa0:	3f 93       	push	r19
     aa2:	8f 93       	push	r24
     aa4:	9f 93       	push	r25
     aa6:	af 93       	push	r26
     aa8:	bf 93       	push	r27
C:\Users\user\AppData\Local\Arduino15\packages\MiniCore\hardware\avr\3.0.0\cores\MCUdude_corefiles/wiring.c:167
  static unsigned char timer0_exact = 0;
#endif

  // copy these to local variables so they can be stored in registers
  // (volatile variables must be read from memory on every access, so this saves time)
  unsigned long m = timer0_millis;
     aaa:	80 91 1d 01 	lds	r24, 0x011D	; 0x80011d <timer0_millis>
     aae:	90 91 1e 01 	lds	r25, 0x011E	; 0x80011e <timer0_millis+0x1>
     ab2:	a0 91 1f 01 	lds	r26, 0x011F	; 0x80011f <timer0_millis+0x2>
     ab6:	b0 91 20 01 	lds	r27, 0x0120	; 0x800120 <timer0_millis+0x3>
C:\Users\user\AppData\Local\Arduino15\packages\MiniCore\hardware\avr\3.0.0\cores\MCUdude_corefiles/wiring.c:168
  unsigned char f = timer0_fract;
     aba:	30 91 a0 00 	lds	r19, 0x00A0	; 0x8000a0 <timer0_fract>
C:\Users\user\AppData\Local\Arduino15\packages\MiniCore\hardware\avr\3.0.0\cores\MCUdude_corefiles/wiring.c:170

  f += FRACT_INC FRACT_INC_PLUS;
     abe:	26 e0       	ldi	r18, 0x06	; 6
     ac0:	23 0f       	add	r18, r19
C:\Users\user\AppData\Local\Arduino15\packages\MiniCore\hardware\avr\3.0.0\cores\MCUdude_corefiles/wiring.c:200
    ++f;
  }
#endif
#endif // CORRECT_EXACT_MILLIS

  if (f >= FRACT_MAX) {
     ac2:	2d 37       	cpi	r18, 0x7D	; 125
     ac4:	68 f1       	brcs	.+90     	; 0xb20 <__vector_9+0x8c>
C:\Users\user\AppData\Local\Arduino15\packages\MiniCore\hardware\avr\3.0.0\cores\MCUdude_corefiles/wiring.c:201
    f -= FRACT_MAX;
     ac6:	29 e8       	ldi	r18, 0x89	; 137
     ac8:	23 0f       	add	r18, r19
C:\Users\user\AppData\Local\Arduino15\packages\MiniCore\hardware\avr\3.0.0\cores\MCUdude_corefiles/wiring.c:202
    m += MILLIS_INC + 1;
     aca:	03 96       	adiw	r24, 0x03	; 3
     acc:	a1 1d       	adc	r26, r1
     ace:	b1 1d       	adc	r27, r1
C:\Users\user\AppData\Local\Arduino15\packages\MiniCore\hardware\avr\3.0.0\cores\MCUdude_corefiles/wiring.c:208
  }
  else {
    m += MILLIS_INC;
  }

  timer0_fract = f;
     ad0:	20 93 a0 00 	sts	0x00A0, r18	; 0x8000a0 <timer0_fract>
C:\Users\user\AppData\Local\Arduino15\packages\MiniCore\hardware\avr\3.0.0\cores\MCUdude_corefiles/wiring.c:209
  timer0_millis = m;
     ad4:	80 93 1d 01 	sts	0x011D, r24	; 0x80011d <timer0_millis>
     ad8:	90 93 1e 01 	sts	0x011E, r25	; 0x80011e <timer0_millis+0x1>
     adc:	a0 93 1f 01 	sts	0x011F, r26	; 0x80011f <timer0_millis+0x2>
     ae0:	b0 93 20 01 	sts	0x0120, r27	; 0x800120 <timer0_millis+0x3>
C:\Users\user\AppData\Local\Arduino15\packages\MiniCore\hardware\avr\3.0.0\cores\MCUdude_corefiles/wiring.c:211
#ifndef CORRECT_EXACT_MICROS
  timer0_overflow_count++;
     ae4:	80 91 a1 00 	lds	r24, 0x00A1	; 0x8000a1 <timer0_overflow_count>
     ae8:	90 91 a2 00 	lds	r25, 0x00A2	; 0x8000a2 <timer0_overflow_count+0x1>
     aec:	a0 91 a3 00 	lds	r26, 0x00A3	; 0x8000a3 <timer0_overflow_count+0x2>
     af0:	b0 91 a4 00 	lds	r27, 0x00A4	; 0x8000a4 <timer0_overflow_count+0x3>
     af4:	01 96       	adiw	r24, 0x01	; 1
     af6:	a1 1d       	adc	r26, r1
     af8:	b1 1d       	adc	r27, r1
     afa:	80 93 a1 00 	sts	0x00A1, r24	; 0x8000a1 <timer0_overflow_count>
     afe:	90 93 a2 00 	sts	0x00A2, r25	; 0x8000a2 <timer0_overflow_count+0x1>
     b02:	a0 93 a3 00 	sts	0x00A3, r26	; 0x8000a3 <timer0_overflow_count+0x2>
     b06:	b0 93 a4 00 	sts	0x00A4, r27	; 0x8000a4 <timer0_overflow_count+0x3>
C:\Users\user\AppData\Local\Arduino15\packages\MiniCore\hardware\avr\3.0.0\cores\MCUdude_corefiles/wiring.c:213
#endif
}
     b0a:	bf 91       	pop	r27
     b0c:	af 91       	pop	r26
     b0e:	9f 91       	pop	r25
     b10:	8f 91       	pop	r24
     b12:	3f 91       	pop	r19
     b14:	2f 91       	pop	r18
     b16:	0f 90       	pop	r0
     b18:	0f be       	out	0x3f, r0	; 63
     b1a:	0f 90       	pop	r0
     b1c:	1f 90       	pop	r1
     b1e:	18 95       	reti
C:\Users\user\AppData\Local\Arduino15\packages\MiniCore\hardware\avr\3.0.0\cores\MCUdude_corefiles/wiring.c:205
  if (f >= FRACT_MAX) {
    f -= FRACT_MAX;
    m += MILLIS_INC + 1;
  }
  else {
    m += MILLIS_INC;
     b20:	02 96       	adiw	r24, 0x02	; 2
     b22:	a1 1d       	adc	r26, r1
     b24:	b1 1d       	adc	r27, r1
     b26:	d4 cf       	rjmp	.-88     	; 0xad0 <__vector_9+0x3c>

00000b28 <main>:
main():
C:\Users\user\AppData\Local\Arduino15\packages\MiniCore\hardware\avr\3.0.0\cores\MCUdude_corefiles/wiring.c:945

void init()
{
  // this needs to be called before setup() or some functions won't
  // work there
  sei();
     b28:	78 94       	sei
C:\Users\user\AppData\Local\Arduino15\packages\MiniCore\hardware\avr\3.0.0\cores\MCUdude_corefiles/wiring.c:966
#if defined(__AVR_ATmega64__) || defined(__AVR_ATmega128__)
  // CPU specific: different values for the ATmega64/128
  TCCR0 |= _BV(WGM01) | _BV(WGM00) | _BV(CS02);
#elif defined(TCCR0) && defined(CS01) && defined(CS00)
  // This combination is for the ATmega8535, ATmega8, ATmega16, ATmega32, ATmega8515, ATmega162
  TCCR0 |= _BV(CS01) | _BV(CS00);
     b2a:	83 b7       	in	r24, 0x33	; 51
     b2c:	83 60       	ori	r24, 0x03	; 3
     b2e:	83 bf       	out	0x33, r24	; 51
C:\Users\user\AppData\Local\Arduino15\packages\MiniCore\hardware\avr\3.0.0\cores\MCUdude_corefiles/wiring.c:982
  #error Timer 0 prescale factor 64 not set correctly
#endif

// Enable timer 0 overflow interrupt
#if defined(TIMSK) && defined(TOIE0)
  TIMSK |= _BV(TOIE0);
     b30:	89 b7       	in	r24, 0x39	; 57
     b32:	81 60       	ori	r24, 0x01	; 1
     b34:	89 bf       	out	0x39, r24	; 57
C:\Users\user\AppData\Local\Arduino15\packages\MiniCore\hardware\avr\3.0.0\cores\MCUdude_corefiles/wiring.c:995
// this is better for motors as it ensures an even waveform
// note, however, that fast pwm mode can achieve a frequency of up
// 8 MHz (with a 16 MHz clock) at 50% duty cycle

#if defined(TCCR1B) && defined(CS11) && defined(CS10)
  TCCR1B = _BV(CS11); // Set timer 1 prescale factor to 64
     b36:	82 e0       	ldi	r24, 0x02	; 2
     b38:	8e bd       	out	0x2e, r24	; 46
C:\Users\user\AppData\Local\Arduino15\packages\MiniCore\hardware\avr\3.0.0\cores\MCUdude_corefiles/wiring.c:997
#if F_CPU >= 8000000L
  TCCR1B |= _BV(CS10);
     b3a:	8e b5       	in	r24, 0x2e	; 46
     b3c:	81 60       	ori	r24, 0x01	; 1
     b3e:	8e bd       	out	0x2e, r24	; 46
C:\Users\user\AppData\Local\Arduino15\packages\MiniCore\hardware\avr\3.0.0\cores\MCUdude_corefiles/wiring.c:1006
#if F_CPU >= 8000000L
  TCCR1 |= _BV(CS10);
#endif
#endif
#if defined(TCCR1A) && defined(WGM10)
  TCCR1A |= _BV(WGM10); // Put timer 1 in 8-bit phase correct pwm mode
     b40:	8f b5       	in	r24, 0x2f	; 47
     b42:	81 60       	ori	r24, 0x01	; 1
     b44:	8f bd       	out	0x2f, r24	; 47
C:\Users\user\AppData\Local\Arduino15\packages\MiniCore\hardware\avr\3.0.0\cores\MCUdude_corefiles/wiring.c:1011
#endif

// Set timer 2 prescale factor to 64
#if defined(TCCR2) && defined(CS22)
  TCCR2 |= _BV(CS22);
     b46:	85 b5       	in	r24, 0x25	; 37
     b48:	84 60       	ori	r24, 0x04	; 4
     b4a:	85 bd       	out	0x25, r24	; 37
C:\Users\user\AppData\Local\Arduino15\packages\MiniCore\hardware\avr\3.0.0\cores\MCUdude_corefiles/wiring.c:1020
  TCCR2A |= _BV(CS22);
#endif

// Configure timer 2 for phase correct pwm (8-bit)
#if defined(TCCR2) && defined(WGM20)
  TCCR2 |= _BV(WGM20);
     b4c:	85 b5       	in	r24, 0x25	; 37
     b4e:	80 64       	ori	r24, 0x40	; 64
     b50:	85 bd       	out	0x25, r24	; 37
C:\Users\user\AppData\Local\Arduino15\packages\MiniCore\hardware\avr\3.0.0\cores\MCUdude_corefiles/wiring.c:1052
#if defined(ADCSRA)
  // set a2d prescaler so we are inside the desired 50-200 KHz range.
  #if F_CPU >= 16000000 // 16 MHz / 128 = 125 KHz
    ADCSRA = _BV(ADPS2) | _BV(ADPS1) | _BV(ADPS0) | _BV(ADEN);
  #elif F_CPU >= 8000000 // 8 MHz / 64 = 125 KHz
    ADCSRA = _BV(ADPS2) | _BV(ADPS1) | _BV(ADEN);
     b52:	86 e8       	ldi	r24, 0x86	; 134
     b54:	86 b9       	out	0x06, r24	; 6
C:\Users\user\AppData\Local\Arduino15\packages\MiniCore\hardware\avr\3.0.0\cores\MCUdude_corefiles/wiring.c:1068

  // The bootloader connects pins 0 and 1 to the USART; disconnect them
  // here so they can be used as normal digital i/o; they will be
  // reconnected in Serial.begin()
#if defined(UCSRB)
  UCSRB = 0;
     b56:	1a b8       	out	0x0a, r1	; 10
pinMode():
C:\Users\user\AppData\Local\Arduino15\packages\MiniCore\hardware\avr\3.0.0\cores\MCUdude_corefiles/wiring_digital.c:31
#include "wiring_private.h"
#include "pins_arduino.h"

void pinMode(uint8_t pin, uint8_t mode)
{
  uint8_t bit = digitalPinToBitMask(pin);
     b58:	e9 e6       	ldi	r30, 0x69	; 105
     b5a:	f0 e0       	ldi	r31, 0x00	; 0
     b5c:	24 91       	lpm	r18, Z
C:\Users\user\AppData\Local\Arduino15\packages\MiniCore\hardware\avr\3.0.0\cores\MCUdude_corefiles/wiring_digital.c:32
  uint8_t port = digitalPinToPort(pin);
     b5e:	e2 e5       	ldi	r30, 0x52	; 82
     b60:	f0 e0       	ldi	r31, 0x00	; 0
     b62:	84 91       	lpm	r24, Z
C:\Users\user\AppData\Local\Arduino15\packages\MiniCore\hardware\avr\3.0.0\cores\MCUdude_corefiles/wiring_digital.c:35
  volatile uint8_t *reg, *out;

  if (port == NOT_A_PIN) return;
     b64:	88 23       	and	r24, r24
     b66:	c1 f0       	breq	.+48     	; 0xb98 <main+0x70>
C:\Users\user\AppData\Local\Arduino15\packages\MiniCore\hardware\avr\3.0.0\cores\MCUdude_corefiles/wiring_digital.c:38

  // JWS: can I let the optimizer do this?
  reg = portModeRegister(port);
     b68:	90 e0       	ldi	r25, 0x00	; 0
     b6a:	88 0f       	add	r24, r24
     b6c:	99 1f       	adc	r25, r25
     b6e:	fc 01       	movw	r30, r24
     b70:	e0 5d       	subi	r30, 0xD0	; 208
     b72:	ff 4f       	sbci	r31, 0xFF	; 255
     b74:	c5 91       	lpm	r28, Z+
     b76:	d4 91       	lpm	r29, Z
C:\Users\user\AppData\Local\Arduino15\packages\MiniCore\hardware\avr\3.0.0\cores\MCUdude_corefiles/wiring_digital.c:39
  out = portOutputRegister(port);
     b78:	fc 01       	movw	r30, r24
     b7a:	ea 5d       	subi	r30, 0xDA	; 218
     b7c:	ff 4f       	sbci	r31, 0xFF	; 255
     b7e:	a5 91       	lpm	r26, Z+
     b80:	b4 91       	lpm	r27, Z
C:\Users\user\AppData\Local\Arduino15\packages\MiniCore\hardware\avr\3.0.0\cores\MCUdude_corefiles/wiring_digital.c:48
    cli();
    *reg &= ~bit;
    *out &= ~bit;
    SREG = oldSREG;
  } else if (mode == INPUT_PULLUP) {
    uint8_t oldSREG = SREG;
     b82:	9f b7       	in	r25, 0x3f	; 63
C:\Users\user\AppData\Local\Arduino15\packages\MiniCore\hardware\avr\3.0.0\cores\MCUdude_corefiles/wiring_digital.c:49
    cli();
     b84:	f8 94       	cli
C:\Users\user\AppData\Local\Arduino15\packages\MiniCore\hardware\avr\3.0.0\cores\MCUdude_corefiles/wiring_digital.c:50
    *reg &= ~bit;
     b86:	38 81       	ld	r19, Y
     b88:	82 2f       	mov	r24, r18
     b8a:	80 95       	com	r24
     b8c:	83 23       	and	r24, r19
     b8e:	88 83       	st	Y, r24
C:\Users\user\AppData\Local\Arduino15\packages\MiniCore\hardware\avr\3.0.0\cores\MCUdude_corefiles/wiring_digital.c:51
    *out |= bit;
     b90:	ec 91       	ld	r30, X
     b92:	e2 2b       	or	r30, r18
     b94:	ec 93       	st	X, r30
C:\Users\user\AppData\Local\Arduino15\packages\MiniCore\hardware\avr\3.0.0\cores\MCUdude_corefiles/wiring_digital.c:52
    SREG = oldSREG;
     b96:	9f bf       	out	0x3f, r25	; 63
addLeds():
C:\Users\user\Documents\Arduino\libraries\FastLED\src/FastLED.h:352
	/// @{

	/// Add a clockless based CLEDController instance to the world.
	template<template<uint8_t DATA_PIN, EOrder RGB_ORDER> class CHIPSET, uint8_t DATA_PIN, EOrder RGB_ORDER>
	static CLEDController &addLeds(struct CRGB *data, int nLedsOrOffset, int nLedsIfOffset = 0) {
		static CHIPSET<DATA_PIN, RGB_ORDER> c;
     b98:	80 91 b8 00 	lds	r24, 0x00B8	; 0x8000b8 <guard variable for CLEDController& CFastLED::addLeds<WS2812B, (unsigned char)11, (EOrder)66>(CRGB*, int, int)::c>
     b9c:	81 11       	cpse	r24, r1
     b9e:	45 c0       	rjmp	.+138    	; 0xc2a <main+0x102>
__base_ctor ():
C:\Users\user\Documents\Arduino\libraries\FastLED\src/controller.h:87
    /// @param scale the rgb scaling to apply to each led before writing it out
    virtual void show(const struct CRGB *data, int nLeds, CRGB scale) = 0;

public:
    /// Create an led controller object, add it to the chain of controllers
    CLEDController() : m_Data(NULL), m_ColorCorrection(UncorrectedColor), m_ColorTemperature(UncorrectedTemperature), m_DitherMode(BINARY_DITHER), m_nLeds(0) {
     ba0:	10 92 aa 00 	sts	0x00AA, r1	; 0x8000aa <CLEDController& CFastLED::addLeds<WS2812B, (unsigned char)11, (EOrder)66>(CRGB*, int, int)::c+0x3>
     ba4:	10 92 a9 00 	sts	0x00A9, r1	; 0x8000a9 <CLEDController& CFastLED::addLeds<WS2812B, (unsigned char)11, (EOrder)66>(CRGB*, int, int)::c+0x2>
_ZN4CRGBC2E18LEDColorCorrection():
C:\Users\user\Documents\Arduino\libraries\FastLED\src/pixeltypes.h:183
    }

    /// Allow construction from a LEDColorCorrection enum
    /// @param colorcode an LEDColorCorrect enumeration value
    inline CRGB( LEDColorCorrection colorcode) __attribute__((always_inline))
    : r((colorcode >> 16) & 0xFF), g((colorcode >> 8) & 0xFF), b((colorcode >> 0) & 0xFF)
     ba8:	8f ef       	ldi	r24, 0xFF	; 255
     baa:	80 93 ad 00 	sts	0x00AD, r24	; 0x8000ad <CLEDController& CFastLED::addLeds<WS2812B, (unsigned char)11, (EOrder)66>(CRGB*, int, int)::c+0x6>
     bae:	80 93 ae 00 	sts	0x00AE, r24	; 0x8000ae <CLEDController& CFastLED::addLeds<WS2812B, (unsigned char)11, (EOrder)66>(CRGB*, int, int)::c+0x7>
     bb2:	80 93 af 00 	sts	0x00AF, r24	; 0x8000af <CLEDController& CFastLED::addLeds<WS2812B, (unsigned char)11, (EOrder)66>(CRGB*, int, int)::c+0x8>
_ZN4CRGBC2E16ColorTemperature():
C:\Users\user\Documents\Arduino\libraries\FastLED\src/pixeltypes.h:191
    }

    /// Allow construction from a ColorTemperature enum
    /// @param colorcode an ColorTemperature enumeration value
    inline CRGB( ColorTemperature colorcode) __attribute__((always_inline))
    : r((colorcode >> 16) & 0xFF), g((colorcode >> 8) & 0xFF), b((colorcode >> 0) & 0xFF)
     bb6:	80 93 b0 00 	sts	0x00B0, r24	; 0x8000b0 <CLEDController& CFastLED::addLeds<WS2812B, (unsigned char)11, (EOrder)66>(CRGB*, int, int)::c+0x9>
     bba:	80 93 b1 00 	sts	0x00B1, r24	; 0x8000b1 <CLEDController& CFastLED::addLeds<WS2812B, (unsigned char)11, (EOrder)66>(CRGB*, int, int)::c+0xa>
     bbe:	80 93 b2 00 	sts	0x00B2, r24	; 0x8000b2 <CLEDController& CFastLED::addLeds<WS2812B, (unsigned char)11, (EOrder)66>(CRGB*, int, int)::c+0xb>
__base_ctor ():
C:\Users\user\Documents\Arduino\libraries\FastLED\src/controller.h:87
     bc2:	81 e0       	ldi	r24, 0x01	; 1
     bc4:	80 93 b3 00 	sts	0x00B3, r24	; 0x8000b3 <CLEDController& CFastLED::addLeds<WS2812B, (unsigned char)11, (EOrder)66>(CRGB*, int, int)::c+0xc>
     bc8:	10 92 b5 00 	sts	0x00B5, r1	; 0x8000b5 <CLEDController& CFastLED::addLeds<WS2812B, (unsigned char)11, (EOrder)66>(CRGB*, int, int)::c+0xe>
     bcc:	10 92 b4 00 	sts	0x00B4, r1	; 0x8000b4 <CLEDController& CFastLED::addLeds<WS2812B, (unsigned char)11, (EOrder)66>(CRGB*, int, int)::c+0xd>
C:\Users\user\Documents\Arduino\libraries\FastLED\src/controller.h:88
        m_pNext = NULL;
     bd0:	10 92 ac 00 	sts	0x00AC, r1	; 0x8000ac <CLEDController& CFastLED::addLeds<WS2812B, (unsigned char)11, (EOrder)66>(CRGB*, int, int)::c+0x5>
     bd4:	10 92 ab 00 	sts	0x00AB, r1	; 0x8000ab <CLEDController& CFastLED::addLeds<WS2812B, (unsigned char)11, (EOrder)66>(CRGB*, int, int)::c+0x4>
C:\Users\user\Documents\Arduino\libraries\FastLED\src/controller.h:89
        if(m_pHead==NULL) { m_pHead = this; }
     bd8:	80 91 27 01 	lds	r24, 0x0127	; 0x800127 <CLEDController::m_pHead>
     bdc:	90 91 28 01 	lds	r25, 0x0128	; 0x800128 <CLEDController::m_pHead+0x1>
     be0:	89 2b       	or	r24, r25
     be2:	31 f4       	brne	.+12     	; 0xbf0 <main+0xc8>
     be4:	87 ea       	ldi	r24, 0xA7	; 167
     be6:	90 e0       	ldi	r25, 0x00	; 0
     be8:	90 93 28 01 	sts	0x0128, r25	; 0x800128 <CLEDController::m_pHead+0x1>
     bec:	80 93 27 01 	sts	0x0127, r24	; 0x800127 <CLEDController::m_pHead>
C:\Users\user\Documents\Arduino\libraries\FastLED\src/controller.h:90
        if(m_pTail != NULL) { m_pTail->m_pNext = this; }
     bf0:	e0 91 a5 00 	lds	r30, 0x00A5	; 0x8000a5 <CLEDController::m_pTail>
     bf4:	f0 91 a6 00 	lds	r31, 0x00A6	; 0x8000a6 <CLEDController::m_pTail+0x1>
     bf8:	30 97       	sbiw	r30, 0x00	; 0
     bfa:	21 f0       	breq	.+8      	; 0xc04 <main+0xdc>
     bfc:	87 ea       	ldi	r24, 0xA7	; 167
     bfe:	90 e0       	ldi	r25, 0x00	; 0
     c00:	95 83       	std	Z+5, r25	; 0x05
     c02:	84 83       	std	Z+4, r24	; 0x04
C:\Users\user\Documents\Arduino\libraries\FastLED\src/controller.h:91
        m_pTail = this;
     c04:	87 ea       	ldi	r24, 0xA7	; 167
     c06:	90 e0       	ldi	r25, 0x00	; 0
     c08:	90 93 a6 00 	sts	0x00A6, r25	; 0x8000a6 <CLEDController::m_pTail+0x1>
     c0c:	80 93 a5 00 	sts	0x00A5, r24	; 0x8000a5 <CLEDController::m_pTail>
_ZN8CMinWaitILi10EEC2Ev():
C:\Users\user\Documents\Arduino\libraries\FastLED\src/fastled_delay.h:22
	/// Timestamp of the last time this was run, in microseconds
	uint16_t mLastMicros;

public:
	/// Constructor
	CMinWait() { mLastMicros = 0; }
     c10:	10 92 b7 00 	sts	0x00B7, r1	; 0x8000b7 <CLEDController& CFastLED::addLeds<WS2812B, (unsigned char)11, (EOrder)66>(CRGB*, int, int)::c+0x10>
     c14:	10 92 b6 00 	sts	0x00B6, r1	; 0x8000b6 <CLEDController& CFastLED::addLeds<WS2812B, (unsigned char)11, (EOrder)66>(CRGB*, int, int)::c+0xf>
__base_ctor ():
C:\Users\user\Documents\Arduino\libraries\FastLED\src/FastLED.h:132
template<uint8_t DATA_PIN, EOrder RGB_ORDER> class UCS1903B : public UCS1903BController800Khz<DATA_PIN, RGB_ORDER> {};           ///< @copydoc UCS1903BController800Khz
template<uint8_t DATA_PIN, EOrder RGB_ORDER> class UCS1904 : public UCS1904Controller800Khz<DATA_PIN, RGB_ORDER> {};             ///< @copydoc UCS1904Controller800Khz
template<uint8_t DATA_PIN, EOrder RGB_ORDER> class UCS2903 : public UCS2903Controller<DATA_PIN, RGB_ORDER> {};                   ///< @copydoc UCS2903Controller
template<uint8_t DATA_PIN, EOrder RGB_ORDER> class WS2812 : public WS2812Controller800Khz<DATA_PIN, RGB_ORDER> {};               ///< @copydoc WS2812Controller800Khz
template<uint8_t DATA_PIN, EOrder RGB_ORDER> class WS2852 : public WS2812Controller800Khz<DATA_PIN, RGB_ORDER> {};               ///< WS2852 controller class. @copydetails WS2812Controller800Khz
template<uint8_t DATA_PIN, EOrder RGB_ORDER> class WS2812B : public WS2812Controller800Khz<DATA_PIN, RGB_ORDER> {};              ///< WS2812B controller class. @copydetails WS2812Controller800Khz
     c18:	8a e7       	ldi	r24, 0x7A	; 122
     c1a:	90 e0       	ldi	r25, 0x00	; 0
     c1c:	90 93 a8 00 	sts	0x00A8, r25	; 0x8000a8 <CLEDController& CFastLED::addLeds<WS2812B, (unsigned char)11, (EOrder)66>(CRGB*, int, int)::c+0x1>
     c20:	80 93 a7 00 	sts	0x00A7, r24	; 0x8000a7 <CLEDController& CFastLED::addLeds<WS2812B, (unsigned char)11, (EOrder)66>(CRGB*, int, int)::c>
addLeds():
C:\Users\user\Documents\Arduino\libraries\FastLED\src/FastLED.h:352
	/// @{

	/// Add a clockless based CLEDController instance to the world.
	template<template<uint8_t DATA_PIN, EOrder RGB_ORDER> class CHIPSET, uint8_t DATA_PIN, EOrder RGB_ORDER>
	static CLEDController &addLeds(struct CRGB *data, int nLedsOrOffset, int nLedsIfOffset = 0) {
		static CHIPSET<DATA_PIN, RGB_ORDER> c;
     c24:	81 e0       	ldi	r24, 0x01	; 1
     c26:	80 93 b8 00 	sts	0x00B8, r24	; 0x8000b8 <guard variable for CLEDController& CFastLED::addLeds<WS2812B, (unsigned char)11, (EOrder)66>(CRGB*, int, int)::c>
setOutput():
C:\Users\user\Documents\Arduino\libraries\FastLED\src/platforms/avr/fastpin_avr.h:22
     c2a:	bb 9a       	sbi	0x17, 3	; 23
_ZN14CLEDController7setLedsEP4CRGBi():
C:\Users\user\Documents\Arduino\libraries\FastLED\src/controller.h:151

    /// Set the default array of LEDs to be used by this controller
    /// @param data pointer to the LED data
    /// @param nLeds the number of LEDs in the LED data
    CLEDController & setLeds(CRGB *data, int nLeds) {
        m_Data = data;
     c2c:	85 ed       	ldi	r24, 0xD5	; 213
     c2e:	90 e0       	ldi	r25, 0x00	; 0
     c30:	90 93 aa 00 	sts	0x00AA, r25	; 0x8000aa <CLEDController& CFastLED::addLeds<WS2812B, (unsigned char)11, (EOrder)66>(CRGB*, int, int)::c+0x3>
     c34:	80 93 a9 00 	sts	0x00A9, r24	; 0x8000a9 <CLEDController& CFastLED::addLeds<WS2812B, (unsigned char)11, (EOrder)66>(CRGB*, int, int)::c+0x2>
C:\Users\user\Documents\Arduino\libraries\FastLED\src/controller.h:152
        m_nLeds = nLeds;
     c38:	84 e1       	ldi	r24, 0x14	; 20
     c3a:	90 e0       	ldi	r25, 0x00	; 0
     c3c:	90 93 b5 00 	sts	0x00B5, r25	; 0x8000b5 <CLEDController& CFastLED::addLeds<WS2812B, (unsigned char)11, (EOrder)66>(CRGB*, int, int)::c+0xe>
     c40:	80 93 b4 00 	sts	0x00B4, r24	; 0x8000b4 <CLEDController& CFastLED::addLeds<WS2812B, (unsigned char)11, (EOrder)66>(CRGB*, int, int)::c+0xd>
setMaxRefreshRate():
C:\Users\user\Documents\Arduino\libraries\FastLED\src/FastLED.cpp:242
void CFastLED::setMaxRefreshRate(uint16_t refresh, bool constrain) {
	if(constrain) {
		// if we're constraining, the new value of m_nMinMicros _must_ be higher than previously (because we're only
		// allowed to slow things down if constraining)
		if(refresh > 0) {
			m_nMinMicros = ((1000000 / refresh) > m_nMinMicros) ? (1000000 / refresh) : m_nMinMicros;
     c44:	80 91 30 01 	lds	r24, 0x0130	; 0x800130 <FastLED+0x3>
     c48:	90 91 31 01 	lds	r25, 0x0131	; 0x800131 <FastLED+0x4>
     c4c:	a0 91 32 01 	lds	r26, 0x0132	; 0x800132 <FastLED+0x5>
     c50:	b0 91 33 01 	lds	r27, 0x0133	; 0x800133 <FastLED+0x6>
     c54:	84 3c       	cpi	r24, 0xC4	; 196
     c56:	29 e0       	ldi	r18, 0x09	; 9
     c58:	92 07       	cpc	r25, r18
     c5a:	a1 05       	cpc	r26, r1
     c5c:	b1 05       	cpc	r27, r1
     c5e:	20 f4       	brcc	.+8      	; 0xc68 <main+0x140>
     c60:	84 ec       	ldi	r24, 0xC4	; 196
     c62:	99 e0       	ldi	r25, 0x09	; 9
     c64:	a0 e0       	ldi	r26, 0x00	; 0
     c66:	b0 e0       	ldi	r27, 0x00	; 0
     c68:	80 93 30 01 	sts	0x0130, r24	; 0x800130 <FastLED+0x3>
     c6c:	90 93 31 01 	sts	0x0131, r25	; 0x800131 <FastLED+0x4>
     c70:	a0 93 32 01 	sts	0x0132, r26	; 0x800132 <FastLED+0x5>
     c74:	b0 93 33 01 	sts	0x0133, r27	; 0x800133 <FastLED+0x6>
_ZN8CFastLED13setBrightnessEh():
C:\Users\user\Documents\Arduino\libraries\FastLED\src/FastLED.h:553
	/// @} Adding parallel output controllers
#endif

	/// Set the global brightness scaling
	/// @param scale a 0-255 value for how much to scale all leds before writing them out
	void setBrightness(uint8_t scale) { m_Scale = scale; }
     c78:	82 e3       	ldi	r24, 0x32	; 50
     c7a:	80 93 2d 01 	sts	0x012D, r24	; 0x80012d <FastLED>
setup():
C:\Users\user\Desktop\LedDriver\LedDriver2/LedDriver2.ino:40
	//FastLED.setMaxPowerInVoltsAndMilliamps(VOLTS,MAX_AMPS);
	FastLED.setBrightness(BRIGHTNESS);
	//FastLED.clear();
	//FastLED.show(); 

	EEAR = 0x00;
     c7e:	1f ba       	out	0x1f, r1	; 31
     c80:	1e ba       	out	0x1e, r1	; 30
C:\Users\user\Desktop\LedDriver\LedDriver2/LedDriver2.ino:42
	//asm volatile ("sbi EECR,EERE");		//Start read.
	asm volatile ("sbi 0x1C,0");			//Write enable on;
     c82:	e0 9a       	sbi	0x1c, 0	; 28
C:\Users\user\Desktop\LedDriver\LedDriver2/LedDriver2.ino:43
	Status = EEDR;
     c84:	8d b3       	in	r24, 0x1d	; 29
     c86:	80 93 1a 01 	sts	0x011A, r24	; 0x80011a <Status>
loop():
C:\Users\user\Desktop\LedDriver\LedDriver2/LedDriver2.ino:413
		else if(xFrame == 12)	{
			for (iLed = NUM_LEDS-1; iLed > iFrame; iLed--) {
				leds[iLed] = CRGB(Vect[iLed - iFrame], 255, 0);
			}
			for (;iLed != 255; iLed--) {
				leds[iLed] = CRGB(0, 255, 0);
     c8a:	c3 e0       	ldi	r28, 0x03	; 3
C:\Users\user\Desktop\LedDriver\LedDriver2/LedDriver2.ino:402
		else if(xFrame == 11)	{
			for (iLed = NUM_LEDS-1; iLed > iFrame; iLed--) {
				leds[iLed] = CRGB(255, 255, 0);
			}
			for (;iLed != 255; iLed--) {
				leds[iLed] = CRGB(Vect[NUM_LEDS - 1 - iFrame + iLed], 255, 0);
     c8c:	03 e1       	ldi	r16, 0x13	; 19
     c8e:	20 2e       	mov	r2, r16
     c90:	31 2c       	mov	r3, r1
random():
C:\Users\user\AppData\Local\Arduino15\packages\MiniCore\hardware\avr\3.0.0\cores\MCUdude_corefiles/WMath.cpp:40
long random(long howbig)
{
  if (howbig == 0) {
    return 0;
  }
  return random() % howbig;
     c92:	84 e1       	ldi	r24, 0x14	; 20
     c94:	48 2e       	mov	r4, r24
     c96:	51 2c       	mov	r5, r1
     c98:	61 2c       	mov	r6, r1
     c9a:	71 2c       	mov	r7, r1
     c9c:	c1 2c       	mov	r12, r1
     c9e:	d1 2c       	mov	r13, r1
     ca0:	76 01       	movw	r14, r12
     ca2:	ca 94       	dec	r12
hsv2rgb_rainbow():
C:\Users\user\Documents\Arduino\libraries\FastLED\src/hsv2rgb.cpp:391
                // 110
                //case 6: // P -- K
                r = K85 + third;
                g = 0;
                FORCE_REFERENCE(g);
                b = K171 - third;
     ca4:	db ea       	ldi	r29, 0xAB	; 171
loop():
C:\Users\user\Desktop\LedDriver\LedDriver2/LedDriver2.ino:49


}

void loop() {
	for(i = 0; i < FrameDelay; i++)	{
     ca6:	10 92 1c 01 	sts	0x011C, r1	; 0x80011c <i>
     caa:	10 91 1c 01 	lds	r17, 0x011C	; 0x80011c <i>
     cae:	80 91 1b 01 	lds	r24, 0x011B	; 0x80011b <FrameDelay>
     cb2:	18 17       	cp	r17, r24
     cb4:	b0 f5       	brcc	.+108    	; 0xd22 <main+0x1fa>
C:\Users\user\Desktop\LedDriver\LedDriver2/LedDriver2.ino:50
		if(digitalRead(BUTTON_PIN) == 0) {
     cb6:	10 da       	rcall	.-3040   	; 0xd8 <digitalRead.constprop.10>
     cb8:	89 2b       	or	r24, r25
     cba:	09 f0       	breq	.+2      	; 0xcbe <main+0x196>
     cbc:	72 c0       	rjmp	.+228    	; 0xda2 <main+0x27a>
C:\Users\user\Desktop\LedDriver\LedDriver2/LedDriver2.ino:51
			delay(30);											//Debounce.
     cbe:	6e e1       	ldi	r22, 0x1E	; 30
     cc0:	70 e0       	ldi	r23, 0x00	; 0
     cc2:	80 e0       	ldi	r24, 0x00	; 0
     cc4:	90 e0       	ldi	r25, 0x00	; 0
     cc6:	81 db       	rcall	.-2302   	; 0x3ca <delay>
C:\Users\user\Desktop\LedDriver\LedDriver2/LedDriver2.ino:52
			if(digitalRead(BUTTON_PIN) == 0)	{
     cc8:	07 da       	rcall	.-3058   	; 0xd8 <digitalRead.constprop.10>
     cca:	89 2b       	or	r24, r25
     ccc:	09 f0       	breq	.+2      	; 0xcd0 <main+0x1a8>
     cce:	69 c0       	rjmp	.+210    	; 0xda2 <main+0x27a>
C:\Users\user\Desktop\LedDriver\LedDriver2/LedDriver2.ino:53
				Status += 1;
     cd0:	80 91 1a 01 	lds	r24, 0x011A	; 0x80011a <Status>
     cd4:	8f 5f       	subi	r24, 0xFF	; 255
     cd6:	80 93 1a 01 	sts	0x011A, r24	; 0x80011a <Status>
C:\Users\user\Desktop\LedDriver\LedDriver2/LedDriver2.ino:54
				iFrame = 0;
     cda:	10 92 19 01 	sts	0x0119, r1	; 0x800119 <iFrame>
C:\Users\user\Desktop\LedDriver\LedDriver2/LedDriver2.ino:55
				xFrame = 0;
     cde:	10 92 18 01 	sts	0x0118, r1	; 0x800118 <xFrame>
C:\Users\user\Desktop\LedDriver\LedDriver2/LedDriver2.ino:56
				CountDir = CountUp;
     ce2:	10 92 17 01 	sts	0x0117, r1	; 0x800117 <CountDir>
_ZN8CFastLED13setBrightnessEh():
C:\Users\user\Documents\Arduino\libraries\FastLED\src/FastLED.h:553
     ce6:	82 e3       	ldi	r24, 0x32	; 50
     ce8:	80 93 2d 01 	sts	0x012D, r24	; 0x80012d <FastLED>
loop():
C:\Users\user\Desktop\LedDriver\LedDriver2/LedDriver2.ino:58
				FastLED.setBrightness(BRIGHTNESS);
				ResetStatus = 1;
     cec:	81 e0       	ldi	r24, 0x01	; 1
     cee:	80 93 16 01 	sts	0x0116, r24	; 0x800116 <ResetStatus>
C:\Users\user\Desktop\LedDriver\LedDriver2/LedDriver2.ino:59
				WriteStatusRom = 1;
     cf2:	80 93 15 01 	sts	0x0115, r24	; 0x800115 <WriteStatusRom>
millis():
C:\Users\user\AppData\Local\Arduino15\packages\MiniCore\hardware\avr\3.0.0\cores\MCUdude_corefiles/wiring.c:218
}

unsigned long millis()
{
  unsigned long m;
  uint8_t oldSREG = SREG;
     cf6:	2f b7       	in	r18, 0x3f	; 63
C:\Users\user\AppData\Local\Arduino15\packages\MiniCore\hardware\avr\3.0.0\cores\MCUdude_corefiles/wiring.c:222

  // disable interrupts while we read timer0_millis or we might get an
  // inconsistent value (e.g. in the middle of a write to timer0_millis)
  cli();
     cf8:	f8 94       	cli
C:\Users\user\AppData\Local\Arduino15\packages\MiniCore\hardware\avr\3.0.0\cores\MCUdude_corefiles/wiring.c:223
  m = timer0_millis;
     cfa:	80 91 1d 01 	lds	r24, 0x011D	; 0x80011d <timer0_millis>
     cfe:	90 91 1e 01 	lds	r25, 0x011E	; 0x80011e <timer0_millis+0x1>
     d02:	a0 91 1f 01 	lds	r26, 0x011F	; 0x80011f <timer0_millis+0x2>
     d06:	b0 91 20 01 	lds	r27, 0x0120	; 0x800120 <timer0_millis+0x3>
C:\Users\user\AppData\Local\Arduino15\packages\MiniCore\hardware\avr\3.0.0\cores\MCUdude_corefiles/wiring.c:224
  SREG = oldSREG;
     d0a:	2f bf       	out	0x3f, r18	; 63
loop():
C:\Users\user\Desktop\LedDriver\LedDriver2/LedDriver2.ino:60
				ResetTimeStamp = millis();
     d0c:	80 93 11 01 	sts	0x0111, r24	; 0x800111 <ResetTimeStamp>
     d10:	90 93 12 01 	sts	0x0112, r25	; 0x800112 <ResetTimeStamp+0x1>
     d14:	a0 93 13 01 	sts	0x0113, r26	; 0x800113 <ResetTimeStamp+0x2>
     d18:	b0 93 14 01 	sts	0x0114, r27	; 0x800114 <ResetTimeStamp+0x3>
C:\Users\user\Desktop\LedDriver\LedDriver2/LedDriver2.ino:61
				while(digitalRead(BUTTON_PIN) == 0)	{}		//Wait button release.
     d1c:	dd d9       	rcall	.-3142   	; 0xd8 <digitalRead.constprop.10>
     d1e:	89 2b       	or	r24, r25
     d20:	e9 f3       	breq	.-6      	; 0xd1c <main+0x1f4>
C:\Users\user\Desktop\LedDriver\LedDriver2/LedDriver2.ino:67
				break;
			}
		}
		delay(5);
	}
	if(WriteStatusRom == 1)	{
     d22:	80 91 15 01 	lds	r24, 0x0115	; 0x800115 <WriteStatusRom>
     d26:	81 30       	cpi	r24, 0x01	; 1
     d28:	29 f5       	brne	.+74     	; 0xd74 <main+0x24c>
millis():
C:\Users\user\AppData\Local\Arduino15\packages\MiniCore\hardware\avr\3.0.0\cores\MCUdude_corefiles/wiring.c:218
}

unsigned long millis()
{
  unsigned long m;
  uint8_t oldSREG = SREG;
     d2a:	2f b7       	in	r18, 0x3f	; 63
C:\Users\user\AppData\Local\Arduino15\packages\MiniCore\hardware\avr\3.0.0\cores\MCUdude_corefiles/wiring.c:222

  // disable interrupts while we read timer0_millis or we might get an
  // inconsistent value (e.g. in the middle of a write to timer0_millis)
  cli();
     d2c:	f8 94       	cli
C:\Users\user\AppData\Local\Arduino15\packages\MiniCore\hardware\avr\3.0.0\cores\MCUdude_corefiles/wiring.c:223
  m = timer0_millis;
     d2e:	80 91 1d 01 	lds	r24, 0x011D	; 0x80011d <timer0_millis>
     d32:	90 91 1e 01 	lds	r25, 0x011E	; 0x80011e <timer0_millis+0x1>
     d36:	a0 91 1f 01 	lds	r26, 0x011F	; 0x80011f <timer0_millis+0x2>
     d3a:	b0 91 20 01 	lds	r27, 0x0120	; 0x800120 <timer0_millis+0x3>
C:\Users\user\AppData\Local\Arduino15\packages\MiniCore\hardware\avr\3.0.0\cores\MCUdude_corefiles/wiring.c:224
  SREG = oldSREG;
     d3e:	2f bf       	out	0x3f, r18	; 63
loop():
C:\Users\user\Desktop\LedDriver\LedDriver2/LedDriver2.ino:68
		if(millis()-ResetTimeStamp >= 30000)	{
     d40:	40 91 11 01 	lds	r20, 0x0111	; 0x800111 <ResetTimeStamp>
     d44:	50 91 12 01 	lds	r21, 0x0112	; 0x800112 <ResetTimeStamp+0x1>
     d48:	60 91 13 01 	lds	r22, 0x0113	; 0x800113 <ResetTimeStamp+0x2>
     d4c:	70 91 14 01 	lds	r23, 0x0114	; 0x800114 <ResetTimeStamp+0x3>
     d50:	84 1b       	sub	r24, r20
     d52:	95 0b       	sbc	r25, r21
     d54:	a6 0b       	sbc	r26, r22
     d56:	b7 0b       	sbc	r27, r23
     d58:	80 33       	cpi	r24, 0x30	; 48
     d5a:	95 47       	sbci	r25, 0x75	; 117
     d5c:	a1 05       	cpc	r26, r1
     d5e:	b1 05       	cpc	r27, r1
     d60:	48 f0       	brcs	.+18     	; 0xd74 <main+0x24c>
C:\Users\user\Desktop\LedDriver\LedDriver2/LedDriver2.ino:70
			//Write status to rom
			EEAR = 0x00;
     d62:	1f ba       	out	0x1f, r1	; 31
     d64:	1e ba       	out	0x1e, r1	; 30
C:\Users\user\Desktop\LedDriver\LedDriver2/LedDriver2.ino:71
			EEDR = Status;
     d66:	80 91 1a 01 	lds	r24, 0x011A	; 0x80011a <Status>
     d6a:	8d bb       	out	0x1d, r24	; 29
C:\Users\user\Desktop\LedDriver\LedDriver2/LedDriver2.ino:73
			//asm volatile ("sbi EECR,EEMWE");			//Write enable on;
			asm volatile ("sbi 0x1C,2");			//Write enable on;
     d6c:	e2 9a       	sbi	0x1c, 2	; 28
C:\Users\user\Desktop\LedDriver\LedDriver2/LedDriver2.ino:75
			//asm volatile ("sbi EECR,EEWE");			//Start write;
			asm volatile ("sbi 0x1C,1");			//Start write;
     d6e:	e1 9a       	sbi	0x1c, 1	; 28
C:\Users\user\Desktop\LedDriver\LedDriver2/LedDriver2.ino:76
			WriteStatusRom = 0;	
     d70:	10 92 15 01 	sts	0x0115, r1	; 0x800115 <WriteStatusRom>
C:\Users\user\Desktop\LedDriver\LedDriver2/LedDriver2.ino:82
		}
	}
				

	//////////////////// STATUS 0 ///////////////////////
	if(Status == 0)	{
     d74:	80 91 1a 01 	lds	r24, 0x011A	; 0x80011a <Status>
C:\Users\user\Desktop\LedDriver\LedDriver2/LedDriver2.ino:83
		ColorLeds(CRGB::Red);
     d78:	6f ef       	ldi	r22, 0xFF	; 255
     d7a:	70 e0       	ldi	r23, 0x00	; 0
C:\Users\user\Desktop\LedDriver\LedDriver2/LedDriver2.ino:82
		}
	}
				

	//////////////////// STATUS 0 ///////////////////////
	if(Status == 0)	{
     d7c:	88 23       	and	r24, r24
     d7e:	29 f0       	breq	.+10     	; 0xd8a <main+0x262>
C:\Users\user\Desktop\LedDriver\LedDriver2/LedDriver2.ino:89
		//FastLED.setBrightness(BRIGHTNESS);
		FastLED.show();
		FrameDelay = 255;
	}
	//////////////////// STATUS 1 ///////////////////////
	else if(Status == 1)	{
     d80:	81 30       	cpi	r24, 0x01	; 1
     d82:	c1 f4       	brne	.+48     	; 0xdb4 <main+0x28c>
C:\Users\user\Desktop\LedDriver\LedDriver2/LedDriver2.ino:90
		ColorLeds(CRGB::Green);
     d84:	60 e0       	ldi	r22, 0x00	; 0
     d86:	70 e8       	ldi	r23, 0x80	; 128
     d88:	80 e0       	ldi	r24, 0x00	; 0
     d8a:	14 de       	rcall	.-984    	; 0x9b4 <ColorLeds(CRGB)>
C:\Users\user\Desktop\LedDriver\LedDriver2/LedDriver2.ino:92
		//FastLED.setBrightness(BRIGHTNESS);
		FastLED.show();
     d8c:	fc d9       	rcall	.-3080   	; 0x186 <CFastLED::show() [clone .constprop.13]>
C:\Users\user\Desktop\LedDriver\LedDriver2/LedDriver2.ino:93
		FrameDelay = 255;
     d8e:	8f ef       	ldi	r24, 0xFF	; 255
C:\Users\user\Desktop\LedDriver\LedDriver2/LedDriver2.ino:160
  	else if(Status == 8)  {
		fill_rainbow_circular(leds,NUM_LEDS,iFrame);
		//FastLED.setBrightness(BRIGHTNESS);
		FastLED.show();
		iFrame += 10;
		FrameDelay = 5;
     d90:	80 93 1b 01 	sts	0x011B, r24	; 0x80011b <FrameDelay>
main():
C:\Users\user\AppData\Local\Arduino15\packages\MiniCore\hardware\avr\3.0.0\cores\MCUdude_corefiles/main.cpp:47
  
  setup();
    
  for (;;) {
    loop();
    if (serialEventRun) serialEventRun();
     d94:	e0 e0       	ldi	r30, 0x00	; 0
     d96:	f0 e0       	ldi	r31, 0x00	; 0
     d98:	ef 2b       	or	r30, r31
     d9a:	09 f4       	brne	.+2      	; 0xd9e <main+0x276>
     d9c:	84 cf       	rjmp	.-248    	; 0xca6 <main+0x17e>
     d9e:	30 d9       	rcall	.-3488   	; 0x0 <__vectors>
     da0:	81 cf       	rjmp	.-254    	; 0xca4 <main+0x17c>
loop():
C:\Users\user\Desktop\LedDriver\LedDriver2/LedDriver2.ino:65
				ResetTimeStamp = millis();
				while(digitalRead(BUTTON_PIN) == 0)	{}		//Wait button release.
				break;
			}
		}
		delay(5);
     da2:	65 e0       	ldi	r22, 0x05	; 5
     da4:	70 e0       	ldi	r23, 0x00	; 0
     da6:	80 e0       	ldi	r24, 0x00	; 0
     da8:	90 e0       	ldi	r25, 0x00	; 0
     daa:	0f db       	rcall	.-2530   	; 0x3ca <delay>
C:\Users\user\Desktop\LedDriver\LedDriver2/LedDriver2.ino:49


}

void loop() {
	for(i = 0; i < FrameDelay; i++)	{
     dac:	1f 5f       	subi	r17, 0xFF	; 255
     dae:	10 93 1c 01 	sts	0x011C, r17	; 0x80011c <i>
     db2:	7b cf       	rjmp	.-266    	; 0xcaa <main+0x182>
C:\Users\user\Desktop\LedDriver\LedDriver2/LedDriver2.ino:96
		//FastLED.setBrightness(BRIGHTNESS);
		FastLED.show();
		FrameDelay = 255;
	}
	//////////////////// STATUS 2 ///////////////////////
	else if(Status == 2)	{
     db4:	82 30       	cpi	r24, 0x02	; 2
     db6:	21 f4       	brne	.+8      	; 0xdc0 <main+0x298>
C:\Users\user\Desktop\LedDriver\LedDriver2/LedDriver2.ino:97
		ColorLeds(CRGB::Blue);
     db8:	60 e0       	ldi	r22, 0x00	; 0
     dba:	70 e0       	ldi	r23, 0x00	; 0
     dbc:	8f ef       	ldi	r24, 0xFF	; 255
     dbe:	e5 cf       	rjmp	.-54     	; 0xd8a <main+0x262>
C:\Users\user\Desktop\LedDriver\LedDriver2/LedDriver2.ino:104
		FastLED.show();
		FrameDelay = 255;
	}

	//////////////////// STATUS 3 ///////////////////////
	else if(Status == 3)	{
     dc0:	83 30       	cpi	r24, 0x03	; 3
     dc2:	21 f4       	brne	.+8      	; 0xdcc <main+0x2a4>
C:\Users\user\Desktop\LedDriver\LedDriver2/LedDriver2.ino:105
		ColorLeds(CRGB::Purple);
     dc4:	60 e8       	ldi	r22, 0x80	; 128
     dc6:	70 e0       	ldi	r23, 0x00	; 0
     dc8:	80 e8       	ldi	r24, 0x80	; 128
     dca:	df cf       	rjmp	.-66     	; 0xd8a <main+0x262>
C:\Users\user\Desktop\LedDriver\LedDriver2/LedDriver2.ino:112
		FastLED.show();
		FrameDelay = 255;
	}
	//////////////////// STATUS 4 ///////////////////////
	else if(Status == 4)	{
		ColorLeds(CRGB::Red);
     dcc:	6f ef       	ldi	r22, 0xFF	; 255
     dce:	70 e0       	ldi	r23, 0x00	; 0
C:\Users\user\Desktop\LedDriver\LedDriver2/LedDriver2.ino:111
		//FastLED.setBrightness(BRIGHTNESS);
		FastLED.show();
		FrameDelay = 255;
	}
	//////////////////// STATUS 4 ///////////////////////
	else if(Status == 4)	{
     dd0:	84 30       	cpi	r24, 0x04	; 4
     dd2:	21 f0       	breq	.+8      	; 0xddc <main+0x2b4>
C:\Users\user\Desktop\LedDriver\LedDriver2/LedDriver2.ino:122
		if		(CountDir == CountUp)		{ iFrame ++;}
		else								{ iFrame --;}
		FrameDelay = 5;
	}
	//////////////////// STATUS 5 ///////////////////////
	else if(Status == 5)	{
     dd4:	85 30       	cpi	r24, 0x05	; 5
     dd6:	d9 f4       	brne	.+54     	; 0xe0e <main+0x2e6>
C:\Users\user\Desktop\LedDriver\LedDriver2/LedDriver2.ino:123
		ColorLeds(CRGB::Green);
     dd8:	60 e0       	ldi	r22, 0x00	; 0
     dda:	70 e8       	ldi	r23, 0x80	; 128
     ddc:	80 e0       	ldi	r24, 0x00	; 0
C:\Users\user\Desktop\LedDriver\LedDriver2/LedDriver2.ino:145
		else								{ iFrame --;}
		FrameDelay = 5;
	}
	//////////////////// STATUS 7 ///////////////////////
	else if(Status == 7)	{
		ColorLeds(CRGB::Purple);
     dde:	ea dd       	rcall	.-1068   	; 0x9b4 <ColorLeds(CRGB)>
_ZN8CFastLED13setBrightnessEh():
C:\Users\user\Documents\Arduino\libraries\FastLED\src/FastLED.h:553
     de0:	80 91 19 01 	lds	r24, 0x0119	; 0x800119 <iFrame>
     de4:	80 93 2d 01 	sts	0x012D, r24	; 0x80012d <FastLED>
loop():
C:\Users\user\Desktop\LedDriver\LedDriver2/LedDriver2.ino:147
		FastLED.setBrightness(iFrame);
		FastLED.show();
     de8:	ce d9       	rcall	.-3172   	; 0x186 <CFastLED::show() [clone .constprop.13]>
C:\Users\user\Desktop\LedDriver\LedDriver2/LedDriver2.ino:148
		if			(iFrame == BRIGHTNESS)	{ CountDir = CountDown;}
     dea:	80 91 19 01 	lds	r24, 0x0119	; 0x800119 <iFrame>
     dee:	82 33       	cpi	r24, 0x32	; 50
     df0:	d1 f4       	brne	.+52     	; 0xe26 <main+0x2fe>
     df2:	91 e0       	ldi	r25, 0x01	; 1
     df4:	90 93 17 01 	sts	0x0117, r25	; 0x800117 <CountDir>
C:\Users\user\Desktop\LedDriver\LedDriver2/LedDriver2.ino:150
		else if		(iFrame == 0)			{ CountDir = CountUp;}
		if			(CountDir == CountUp)	{ iFrame ++;}
     df8:	90 91 17 01 	lds	r25, 0x0117	; 0x800117 <CountDir>
     dfc:	91 11       	cpse	r25, r1
     dfe:	02 c0       	rjmp	.+4      	; 0xe04 <main+0x2dc>
     e00:	8f 5f       	subi	r24, 0xFF	; 255
     e02:	01 c0       	rjmp	.+2      	; 0xe06 <main+0x2de>
C:\Users\user\Desktop\LedDriver\LedDriver2/LedDriver2.ino:118
		FastLED.setBrightness(iFrame);
		FastLED.show();
		if		(iFrame == BRIGHTNESS)		{ CountDir = CountDown;}
		else if	(iFrame == 0)             	{ CountDir = CountUp;}
		if		(CountDir == CountUp)		{ iFrame ++;}
		else								{ iFrame --;}
     e04:	81 50       	subi	r24, 0x01	; 1
C:\Users\user\Desktop\LedDriver\LedDriver2/LedDriver2.ino:159
	//////////////////// STATUS 8 ///////////////////////
  	else if(Status == 8)  {
		fill_rainbow_circular(leds,NUM_LEDS,iFrame);
		//FastLED.setBrightness(BRIGHTNESS);
		FastLED.show();
		iFrame += 10;
     e06:	80 93 19 01 	sts	0x0119, r24	; 0x800119 <iFrame>
C:\Users\user\Desktop\LedDriver\LedDriver2/LedDriver2.ino:160
		FrameDelay = 5;
     e0a:	85 e0       	ldi	r24, 0x05	; 5
     e0c:	c1 cf       	rjmp	.-126    	; 0xd90 <main+0x268>
C:\Users\user\Desktop\LedDriver\LedDriver2/LedDriver2.ino:133
		if		(CountDir == CountUp)		{ iFrame ++;}
		else								{ iFrame --;}
		FrameDelay = 5;
	}
	//////////////////// STATUS 6 ///////////////////////
	else if(Status == 6)	{
     e0e:	86 30       	cpi	r24, 0x06	; 6
     e10:	21 f4       	brne	.+8      	; 0xe1a <main+0x2f2>
C:\Users\user\Desktop\LedDriver\LedDriver2/LedDriver2.ino:134
		ColorLeds(CRGB::Blue);
     e12:	60 e0       	ldi	r22, 0x00	; 0
     e14:	70 e0       	ldi	r23, 0x00	; 0
     e16:	8f ef       	ldi	r24, 0xFF	; 255
     e18:	e2 cf       	rjmp	.-60     	; 0xdde <main+0x2b6>
C:\Users\user\Desktop\LedDriver\LedDriver2/LedDriver2.ino:144
		if		(CountDir == CountUp)		{ iFrame ++;}
		else								{ iFrame --;}
		FrameDelay = 5;
	}
	//////////////////// STATUS 7 ///////////////////////
	else if(Status == 7)	{
     e1a:	87 30       	cpi	r24, 0x07	; 7
     e1c:	49 f4       	brne	.+18     	; 0xe30 <main+0x308>
C:\Users\user\Desktop\LedDriver\LedDriver2/LedDriver2.ino:145
		ColorLeds(CRGB::Purple);
     e1e:	60 e8       	ldi	r22, 0x80	; 128
     e20:	70 e0       	ldi	r23, 0x00	; 0
     e22:	80 e8       	ldi	r24, 0x80	; 128
     e24:	dc cf       	rjmp	.-72     	; 0xdde <main+0x2b6>
C:\Users\user\Desktop\LedDriver\LedDriver2/LedDriver2.ino:149
		FastLED.setBrightness(iFrame);
		FastLED.show();
		if			(iFrame == BRIGHTNESS)	{ CountDir = CountDown;}
		else if		(iFrame == 0)			{ CountDir = CountUp;}
     e26:	81 11       	cpse	r24, r1
     e28:	e7 cf       	rjmp	.-50     	; 0xdf8 <main+0x2d0>
     e2a:	10 92 17 01 	sts	0x0117, r1	; 0x800117 <CountDir>
     e2e:	e4 cf       	rjmp	.-56     	; 0xdf8 <main+0x2d0>
C:\Users\user\Desktop\LedDriver\LedDriver2/LedDriver2.ino:155
		if			(CountDir == CountUp)	{ iFrame ++;}
		else								{ iFrame --;}
		FrameDelay = 5;
	}
	//////////////////// STATUS 8 ///////////////////////
  	else if(Status == 8)  {
     e30:	88 30       	cpi	r24, 0x08	; 8
     e32:	09 f0       	breq	.+2      	; 0xe36 <main+0x30e>
     e34:	84 c0       	rjmp	.+264    	; 0xf3e <L_5467+0xa8>
C:\Users\user\Desktop\LedDriver\LedDriver2/LedDriver2.ino:156
		fill_rainbow_circular(leds,NUM_LEDS,iFrame);
     e36:	a0 91 19 01 	lds	r26, 0x0119	; 0x800119 <iFrame>
     e3a:	e5 ed       	ldi	r30, 0xD5	; 213
     e3c:	f0 e0       	ldi	r31, 0x00	; 0
fill_rainbow_circular():
C:\Users\user\Documents\Arduino\libraries\FastLED\src/colorutils.cpp:73
void fill_rainbow_circular(struct CRGB* targetArray, int numToFill, uint8_t initialhue, bool reversed)
{
    if (numToFill == 0) return;  // avoiding div/0

    CHSV hsv;
    hsv.hue = initialhue;
     e3e:	4a 2f       	mov	r20, r26
main():
C:\Users\user\Documents\Arduino\libraries\FastLED\src/colorutils.cpp:78
    hsv.val = 255;
    hsv.sat = 240;

    const uint16_t hueChange = 65535 / (uint16_t)numToFill;  // hue change for each LED, * 256 for precision (256 * 256 - 1)
    uint16_t hueOffset = 0;  // offset for hue value, with precision (*256)
     e40:	90 e0       	ldi	r25, 0x00	; 0
     e42:	80 e0       	ldi	r24, 0x00	; 0
scale8():
C:\Users\user\Documents\Arduino\libraries\FastLED\src/lib8tion/scale8.h:93
        "clr __zero_reg__    \n\t"

        : "+a" (i)      /* writes to i */
        : "a"  (scale)  /* uses scale */
        : "r0", "r1"    /* clobbers r0, r1 */
    );
     e44:	05 e5       	ldi	r16, 0x55	; 85
hsv2rgb_rainbow():
C:\Users\user\Documents\Arduino\libraries\FastLED\src/hsv2rgb.cpp:398
            } else {
                // 111
                //case 7: // K -> R
                r = K170 + third;
                g = 0;
                FORCE_REFERENCE(g);
     e46:	70 e0       	ldi	r23, 0x00	; 0
scale8_video():
C:\Users\user\Documents\Arduino\libraries\FastLED\src/lib8tion/scale8.h:133
        "  subi %[j], 0xFF\n\t"
        "L_%=: \n\t"
        : [j] "+a" (j)
        : [i] "a" (i), [scale] "a" (scale)
        : "r0", "r1"
    );
     e48:	1f e0       	ldi	r17, 0x0F	; 15
hsv2rgb_rainbow():
C:\Users\user\Documents\Arduino\libraries\FastLED\src/hsv2rgb.cpp:289
        // It's much faster and smaller to just do three single-bit shifts
        // So this business is to force that.
        offset8 <<= 1;
        asm volatile("");
        offset8 <<= 1;
        asm volatile("");
     e4a:	34 2f       	mov	r19, r20
     e4c:	33 0f       	add	r19, r19
     e4e:	33 0f       	add	r19, r19
     e50:	33 0f       	add	r19, r19
scale8():
C:\Users\user\Documents\Arduino\libraries\FastLED\src/lib8tion/scale8.h:93
        "clr __zero_reg__    \n\t"

        : "+a" (i)      /* writes to i */
        : "a"  (scale)  /* uses scale */
        : "r0", "r1"    /* clobbers r0, r1 */
    );
     e52:	23 2f       	mov	r18, r19
     e54:	20 9f       	mul	r18, r16
     e56:	02 0e       	add	r0, r18
     e58:	20 e0       	ldi	r18, 0x00	; 0
     e5a:	21 1d       	adc	r18, r1
     e5c:	11 24       	eor	r1, r1
     e5e:	64 2f       	mov	r22, r20
     e60:	60 74       	andi	r22, 0x40	; 64
     e62:	54 2f       	mov	r21, r20
     e64:	50 72       	andi	r21, 0x20	; 32
hsv2rgb_rainbow():
C:\Users\user\Documents\Arduino\libraries\FastLED\src/hsv2rgb.cpp:301
    
    uint8_t third = scale8( offset8, (256 / 3)); // max = 85
    
    uint8_t r, g, b;
    
    if( ! (hue & 0x80) ) {
     e66:	47 fd       	sbrc	r20, 7
     e68:	4c c0       	rjmp	.+152    	; 0xf02 <L_5467+0x6c>
C:\Users\user\Documents\Arduino\libraries\FastLED\src/hsv2rgb.cpp:303
        // 0XX
        if( ! (hue & 0x40) ) {
     e6a:	61 11       	cpse	r22, r1
     e6c:	38 c0       	rjmp	.+112    	; 0xede <L_5467+0x48>
C:\Users\user\Documents\Arduino\libraries\FastLED\src/hsv2rgb.cpp:306
            // 00X
            //section 0-1
            if( ! (hue & 0x20) ) {
     e6e:	51 11       	cpse	r21, r1
     e70:	06 c0       	rjmp	.+12     	; 0xe7e <main+0x356>
C:\Users\user\Documents\Arduino\libraries\FastLED\src/hsv2rgb.cpp:309
                // 000
                //case 0: // R -> O
                r = K255 - third;
     e72:	32 2f       	mov	r19, r18
     e74:	30 95       	com	r19
main():
C:\Users\user\Documents\Arduino\libraries\FastLED\src/hsv2rgb.cpp:310
                g = third;
     e76:	42 2f       	mov	r20, r18
C:\Users\user\Documents\Arduino\libraries\FastLED\src/hsv2rgb.cpp:340
                // 010
                //case 2: // Y -> G
                if( Y1 ) {
                    //uint8_t twothirds = (third << 1);
                    uint8_t twothirds = scale8( offset8, ((256 * 2) / 3)); // max=170
                    r = K171 - twothirds;
     e78:	23 2f       	mov	r18, r19
C:\Users\user\Documents\Arduino\libraries\FastLED\src/hsv2rgb.cpp:342
                    g = K170 + third;
                    b = 0;
     e7a:	30 e0       	ldi	r19, 0x00	; 0
     e7c:	04 c0       	rjmp	.+8      	; 0xe86 <main+0x35e>
hsv2rgb_rainbow():
C:\Users\user\Documents\Arduino\libraries\FastLED\src/hsv2rgb.cpp:318
            } else {
                // 001
                //case 1: // O -> Y
                if( Y1 ) {
                    r = K171;
                    g = K85 + third ;
     e7e:	45 e5       	ldi	r20, 0x55	; 85
     e80:	42 0f       	add	r20, r18
main():
C:\Users\user\Documents\Arduino\libraries\FastLED\src/hsv2rgb.cpp:319
                    b = 0;
     e82:	30 e0       	ldi	r19, 0x00	; 0
C:\Users\user\Documents\Arduino\libraries\FastLED\src/hsv2rgb.cpp:317
                FORCE_REFERENCE(b);
            } else {
                // 001
                //case 1: // O -> Y
                if( Y1 ) {
                    r = K171;
     e84:	2b ea       	ldi	r18, 0xAB	; 171
scale8_video():
C:\Users\user\Documents\Arduino\libraries\FastLED\src/lib8tion/scale8.h:133
        "  subi %[j], 0xFF\n\t"
        "L_%=: \n\t"
        : [j] "+a" (j)
        : [i] "a" (i), [scale] "a" (scale)
        : "r0", "r1"
    );
     e86:	57 2f       	mov	r21, r23
     e88:	11 23       	and	r17, r17
     e8a:	29 f0       	breq	.+10     	; 0xe96 <L_5467>
     e8c:	11 9f       	mul	r17, r17
     e8e:	51 2d       	mov	r21, r1
     e90:	11 24       	eor	r1, r1
     e92:	11 11       	cpse	r17, r1
     e94:	5f 5f       	subi	r21, 0xFF	; 255

00000e96 <L_5467>:
hsv2rgb_rainbow():
C:\Users\user\Documents\Arduino\libraries\FastLED\src/hsv2rgb.cpp:419
            r = 255; b = 255; g = 255;
        } else {
            uint8_t desat = 255 - sat;
            desat = scale8_video( desat, desat);

            uint8_t satscale = 255 - desat;
     e96:	65 2f       	mov	r22, r21
     e98:	60 95       	com	r22
scale8_LEAVING_R1_DIRTY():
C:\Users\user\Documents\Arduino\libraries\FastLED\src/lib8tion/scale8.h:199
        /* R1 IS LEFT DIRTY HERE; YOU MUST ZERO IT OUT YOURSELF  */
        /* "clr __zero_reg__    \n\t" */
        : "+a" (i)      /* writes to i */
        : "a"  (scale)  /* uses scale */
        : "r0", "r1"    /* clobbers r0, r1 */
    );
     e9a:	26 9f       	mul	r18, r22
     e9c:	02 0e       	add	r0, r18
     e9e:	20 e0       	ldi	r18, 0x00	; 0
     ea0:	21 1d       	adc	r18, r1
     ea2:	46 9f       	mul	r20, r22
     ea4:	04 0e       	add	r0, r20
     ea6:	40 e0       	ldi	r20, 0x00	; 0
     ea8:	41 1d       	adc	r20, r1
     eaa:	36 9f       	mul	r19, r22
     eac:	03 0e       	add	r0, r19
     eae:	30 e0       	ldi	r19, 0x00	; 0
     eb0:	31 1d       	adc	r19, r1
cleanup_R1():
C:\Users\user\Documents\Arduino\libraries\FastLED\src/lib8tion/scale8.h:340
/// @ingroup ScalingDirty
LIB8STATIC_ALWAYS_INLINE void cleanup_R1()
{
#if CLEANUP_R1_AVRASM == 1
    // Restore r1 to "0"; it's expected to always be that
    asm volatile( "clr __zero_reg__  \n\t" : : : "r1" );
     eb2:	11 24       	eor	r1, r1
hsv2rgb_rainbow():
C:\Users\user\Documents\Arduino\libraries\FastLED\src/hsv2rgb.cpp:434
            if( r ) r = scale8( r, satscale) + 1;
            if( g ) g = scale8( g, satscale) + 1;
            if( b ) b = scale8( b, satscale) + 1;
#endif
            uint8_t brightness_floor = desat;
            r += brightness_floor;
     eb4:	25 0f       	add	r18, r21
C:\Users\user\Documents\Arduino\libraries\FastLED\src/hsv2rgb.cpp:467
    // It turns out that fixing it winds up costing more than
    // not fixing it.
    // To paraphrase Dr Bronner, profile! profile! profile!
    //asm volatile(  ""  :  :  : "r26", "r27" );
    //asm volatile (" movw r30, r26 \n" : : : "r30", "r31");
    rgb.r = r;
     eb6:	20 83       	st	Z, r18
C:\Users\user\Documents\Arduino\libraries\FastLED\src/hsv2rgb.cpp:435
            if( g ) g = scale8( g, satscale) + 1;
            if( b ) b = scale8( b, satscale) + 1;
#endif
            uint8_t brightness_floor = desat;
            r += brightness_floor;
            g += brightness_floor;
     eb8:	45 0f       	add	r20, r21
C:\Users\user\Documents\Arduino\libraries\FastLED\src/hsv2rgb.cpp:468
    // not fixing it.
    // To paraphrase Dr Bronner, profile! profile! profile!
    //asm volatile(  ""  :  :  : "r26", "r27" );
    //asm volatile (" movw r30, r26 \n" : : : "r30", "r31");
    rgb.r = r;
    rgb.g = g;
     eba:	41 83       	std	Z+1, r20	; 0x01
C:\Users\user\Documents\Arduino\libraries\FastLED\src/hsv2rgb.cpp:436
            if( b ) b = scale8( b, satscale) + 1;
#endif
            uint8_t brightness_floor = desat;
            r += brightness_floor;
            g += brightness_floor;
            b += brightness_floor;
     ebc:	35 0f       	add	r19, r21
C:\Users\user\Documents\Arduino\libraries\FastLED\src/hsv2rgb.cpp:469
    // To paraphrase Dr Bronner, profile! profile! profile!
    //asm volatile(  ""  :  :  : "r26", "r27" );
    //asm volatile (" movw r30, r26 \n" : : : "r30", "r31");
    rgb.r = r;
    rgb.g = g;
    rgb.b = b;
     ebe:	32 83       	std	Z+2, r19	; 0x02
fill_rainbow_circular():
C:\Users\user\Documents\Arduino\libraries\FastLED\src/colorutils.cpp:83

    for (int i = 0; i < numToFill; ++i) {
        targetArray[i] = hsv;
        if (reversed) hueOffset -= hueChange;
        else hueOffset += hueChange;
     ec0:	84 53       	subi	r24, 0x34	; 52
     ec2:	93 4f       	sbci	r25, 0xF3	; 243
     ec4:	33 96       	adiw	r30, 0x03	; 3
C:\Users\user\Documents\Arduino\libraries\FastLED\src/colorutils.cpp:84
        hsv.hue = initialhue + (uint8_t)(hueOffset >> 8);  // assign new hue with precise offset (as 8-bit)
     ec6:	4a 2f       	mov	r20, r26
     ec8:	49 0f       	add	r20, r25
C:\Users\user\Documents\Arduino\libraries\FastLED\src/colorutils.cpp:80
    hsv.sat = 240;

    const uint16_t hueChange = 65535 / (uint16_t)numToFill;  // hue change for each LED, * 256 for precision (256 * 256 - 1)
    uint16_t hueOffset = 0;  // offset for hue value, with precision (*256)

    for (int i = 0; i < numToFill; ++i) {
     eca:	80 3f       	cpi	r24, 0xF0	; 240
     ecc:	bf ef       	ldi	r27, 0xFF	; 255
     ece:	9b 07       	cpc	r25, r27
     ed0:	09 f0       	breq	.+2      	; 0xed4 <L_5467+0x3e>
     ed2:	bb cf       	rjmp	.-138    	; 0xe4a <main+0x322>
loop():
C:\Users\user\Desktop\LedDriver\LedDriver2/LedDriver2.ino:158
		//FastLED.setBrightness(BRIGHTNESS);
		FastLED.show();
     ed4:	58 d9       	rcall	.-3408   	; 0x186 <CFastLED::show() [clone .constprop.13]>
C:\Users\user\Desktop\LedDriver\LedDriver2/LedDriver2.ino:159
		iFrame += 10;
     ed6:	80 91 19 01 	lds	r24, 0x0119	; 0x800119 <iFrame>
     eda:	86 5f       	subi	r24, 0xF6	; 246
     edc:	94 cf       	rjmp	.-216    	; 0xe06 <main+0x2de>
hsv2rgb_rainbow():
C:\Users\user\Documents\Arduino\libraries\FastLED\src/hsv2rgb.cpp:334
                }
            }
        } else {
            //01X
            // section 2-3
            if( !  (hue & 0x20) ) {
     ede:	51 11       	cpse	r21, r1
     ee0:	0b c0       	rjmp	.+22     	; 0xef8 <L_5467+0x62>
scale8():
C:\Users\user\Documents\Arduino\libraries\FastLED\src/lib8tion/scale8.h:93
        "clr __zero_reg__    \n\t"

        : "+a" (i)      /* writes to i */
        : "a"  (scale)  /* uses scale */
        : "r0", "r1"    /* clobbers r0, r1 */
    );
     ee2:	4a ea       	ldi	r20, 0xAA	; 170
     ee4:	34 9f       	mul	r19, r20
     ee6:	03 0e       	add	r0, r19
     ee8:	30 e0       	ldi	r19, 0x00	; 0
     eea:	31 1d       	adc	r19, r1
     eec:	11 24       	eor	r1, r1
hsv2rgb_rainbow():
C:\Users\user\Documents\Arduino\libraries\FastLED\src/hsv2rgb.cpp:340
                // 010
                //case 2: // Y -> G
                if( Y1 ) {
                    //uint8_t twothirds = (third << 1);
                    uint8_t twothirds = scale8( offset8, ((256 * 2) / 3)); // max=170
                    r = K171 - twothirds;
     eee:	bd 2f       	mov	r27, r29
     ef0:	b3 1b       	sub	r27, r19
     ef2:	3b 2f       	mov	r19, r27
C:\Users\user\Documents\Arduino\libraries\FastLED\src/hsv2rgb.cpp:341
                    g = K170 + third;
     ef4:	42 0f       	add	r20, r18
C:\Users\user\Documents\Arduino\libraries\FastLED\src/hsv2rgb.cpp:343
                    b = 0;
                    FORCE_REFERENCE(b);
     ef6:	c0 cf       	rjmp	.-128    	; 0xe78 <main+0x350>
C:\Users\user\Documents\Arduino\libraries\FastLED\src/hsv2rgb.cpp:356
            } else {
                // 011
                // case 3: // G -> A
                r = 0;
                FORCE_REFERENCE(r);
                g = K255 - third;
     ef8:	42 2f       	mov	r20, r18
     efa:	40 95       	com	r20
main():
C:\Users\user\Documents\Arduino\libraries\FastLED\src/hsv2rgb.cpp:357
                b = third;
     efc:	32 2f       	mov	r19, r18
C:\Users\user\Documents\Arduino\libraries\FastLED\src/hsv2rgb.cpp:368
        if( ! (hue & 0x40) ) {
            // 10X
            if( ! ( hue & 0x20) ) {
                // 100
                //case 4: // A -> B
                r = 0;
     efe:	20 e0       	ldi	r18, 0x00	; 0
     f00:	c2 cf       	rjmp	.-124    	; 0xe86 <main+0x35e>
hsv2rgb_rainbow():
C:\Users\user\Documents\Arduino\libraries\FastLED\src/hsv2rgb.cpp:363
            }
        }
    } else {
        // section 4-7
        // 1XX
        if( ! (hue & 0x40) ) {
     f02:	61 11       	cpse	r22, r1
     f04:	10 c0       	rjmp	.+32     	; 0xf26 <L_5467+0x90>
C:\Users\user\Documents\Arduino\libraries\FastLED\src/hsv2rgb.cpp:365
            // 10X
            if( ! ( hue & 0x20) ) {
     f06:	51 11       	cpse	r21, r1
     f08:	0a c0       	rjmp	.+20     	; 0xf1e <L_5467+0x88>
scale8():
C:\Users\user\Documents\Arduino\libraries\FastLED\src/lib8tion/scale8.h:93
     f0a:	2a ea       	ldi	r18, 0xAA	; 170
     f0c:	32 9f       	mul	r19, r18
     f0e:	03 0e       	add	r0, r19
     f10:	30 e0       	ldi	r19, 0x00	; 0
     f12:	31 1d       	adc	r19, r1
     f14:	11 24       	eor	r1, r1
hsv2rgb_rainbow():
C:\Users\user\Documents\Arduino\libraries\FastLED\src/hsv2rgb.cpp:372
                //case 4: // A -> B
                r = 0;
                FORCE_REFERENCE(r);
                //uint8_t twothirds = (third << 1);
                uint8_t twothirds = scale8( offset8, ((256 * 2) / 3)); // max=170
                g = K171 - twothirds; //K170?
     f16:	4d 2f       	mov	r20, r29
     f18:	43 1b       	sub	r20, r19
C:\Users\user\Documents\Arduino\libraries\FastLED\src/hsv2rgb.cpp:373
                b = K85  + twothirds;
     f1a:	3b 5a       	subi	r19, 0xAB	; 171
     f1c:	f0 cf       	rjmp	.-32     	; 0xefe <L_5467+0x68>
C:\Users\user\Documents\Arduino\libraries\FastLED\src/hsv2rgb.cpp:381
                // 101
                //case 5: // B -> P
                r = third;
                g = 0;
                FORCE_REFERENCE(g);
                b = K255 - third;
     f1e:	32 2f       	mov	r19, r18
     f20:	30 95       	com	r19
main():
C:\Users\user\Documents\Arduino\libraries\FastLED\src/hsv2rgb.cpp:397
                
            } else {
                // 111
                //case 7: // K -> R
                r = K170 + third;
                g = 0;
     f22:	40 e0       	ldi	r20, 0x00	; 0
     f24:	b0 cf       	rjmp	.-160    	; 0xe86 <main+0x35e>
hsv2rgb_rainbow():
C:\Users\user\Documents\Arduino\libraries\FastLED\src/hsv2rgb.cpp:385
                FORCE_REFERENCE(g);
                b = K255 - third;
                
            }
        } else {
            if( !  (hue & 0x20)  ) {
     f26:	51 11       	cpse	r21, r1
     f28:	06 c0       	rjmp	.+12     	; 0xf36 <L_5467+0xa0>
C:\Users\user\Documents\Arduino\libraries\FastLED\src/hsv2rgb.cpp:388
                // 110
                //case 6: // P -- K
                r = K85 + third;
     f2a:	45 e5       	ldi	r20, 0x55	; 85
     f2c:	42 0f       	add	r20, r18
C:\Users\user\Documents\Arduino\libraries\FastLED\src/hsv2rgb.cpp:391
                g = 0;
                FORCE_REFERENCE(g);
                b = K171 - third;
     f2e:	3d 2f       	mov	r19, r29
C:\Users\user\Documents\Arduino\libraries\FastLED\src/hsv2rgb.cpp:399
                // 111
                //case 7: // K -> R
                r = K170 + third;
                g = 0;
                FORCE_REFERENCE(g);
                b = K85 - third;
     f30:	32 1b       	sub	r19, r18
main():
C:\Users\user\Documents\Arduino\libraries\FastLED\src/hsv2rgb.cpp:396
                b = K171 - third;
                
            } else {
                // 111
                //case 7: // K -> R
                r = K170 + third;
     f32:	24 2f       	mov	r18, r20
     f34:	f6 cf       	rjmp	.-20     	; 0xf22 <L_5467+0x8c>
hsv2rgb_rainbow():
     f36:	4a ea       	ldi	r20, 0xAA	; 170
     f38:	42 0f       	add	r20, r18
C:\Users\user\Documents\Arduino\libraries\FastLED\src/hsv2rgb.cpp:399
                g = 0;
                FORCE_REFERENCE(g);
                b = K85 - third;
     f3a:	30 2f       	mov	r19, r16
     f3c:	f9 cf       	rjmp	.-14     	; 0xf30 <L_5467+0x9a>
loop():
C:\Users\user\Desktop\LedDriver\LedDriver2/LedDriver2.ino:163
		FrameDelay = 5;
	}
  	//////////////////// STATUS 9 ///////////////////////
  	else if(Status == 9)  {
     f3e:	89 30       	cpi	r24, 0x09	; 9
     f40:	89 f5       	brne	.+98     	; 0xfa4 <L_5467+0x10e>
C:\Users\user\Desktop\LedDriver\LedDriver2/LedDriver2.ino:164
		ColorLeds(CRGB::Blue);
     f42:	60 e0       	ldi	r22, 0x00	; 0
     f44:	70 e0       	ldi	r23, 0x00	; 0
     f46:	8f ef       	ldi	r24, 0xFF	; 255
     f48:	35 dd       	rcall	.-1430   	; 0x9b4 <ColorLeds(CRGB)>
C:\Users\user\Desktop\LedDriver\LedDriver2/LedDriver2.ino:165
		for (iLed = iFrame; iLed < (iFrame + 5); iLed++) {
     f4a:	20 91 19 01 	lds	r18, 0x0119	; 0x800119 <iFrame>
     f4e:	82 2f       	mov	r24, r18
     f50:	90 e0       	ldi	r25, 0x00	; 0
     f52:	04 96       	adiw	r24, 0x04	; 4
     f54:	32 2f       	mov	r19, r18
_ZN4CRGBaSEm():
C:\Users\user\Documents\Arduino\libraries\FastLED\src/pixeltypes.h:212

    /// Allow assignment from 32-bit (really 24-bit) 0xRRGGBB color code
    /// @param colorcode a packed 24 bit color code
    inline CRGB& operator= (const uint32_t colorcode) __attribute__((always_inline))
    {
        r = (colorcode >> 16) & 0xFF;
     f56:	6f ef       	ldi	r22, 0xFF	; 255
loop():
C:\Users\user\Desktop\LedDriver\LedDriver2/LedDriver2.ino:165
     f58:	e3 2f       	mov	r30, r19
     f5a:	f0 e0       	ldi	r31, 0x00	; 0
     f5c:	8e 17       	cp	r24, r30
     f5e:	9f 07       	cpc	r25, r31
     f60:	a4 f0       	brlt	.+40     	; 0xf8a <L_5467+0xf4>
_ZN4CRGBaSEm():
C:\Users\user\Documents\Arduino\libraries\FastLED\src/pixeltypes.h:212
     f62:	af 01       	movw	r20, r30
loop():
C:\Users\user\Desktop\LedDriver\LedDriver2/LedDriver2.ino:166
			if(iLed < NUM_LEDS) {leds[iLed] = CRGB::Yellow;}
     f64:	34 31       	cpi	r19, 0x14	; 20
     f66:	58 f4       	brcc	.+22     	; 0xf7e <L_5467+0xe8>
_ZN4CRGBaSEm():
C:\Users\user\Documents\Arduino\libraries\FastLED\src/pixeltypes.h:212
     f68:	44 0f       	add	r20, r20
     f6a:	55 1f       	adc	r21, r21
     f6c:	e4 0f       	add	r30, r20
     f6e:	f5 1f       	adc	r31, r21
     f70:	eb 52       	subi	r30, 0x2B	; 43
     f72:	ff 4f       	sbci	r31, 0xFF	; 255
     f74:	60 83       	st	Z, r22
C:\Users\user\Documents\Arduino\libraries\FastLED\src/pixeltypes.h:213
        g = (colorcode >>  8) & 0xFF;
     f76:	61 83       	std	Z+1, r22	; 0x01
C:\Users\user\Documents\Arduino\libraries\FastLED\src/pixeltypes.h:214
        b = (colorcode >>  0) & 0xFF;
     f78:	12 82       	std	Z+2, r1	; 0x02
     f7a:	3f 5f       	subi	r19, 0xFF	; 255
     f7c:	ed cf       	rjmp	.-38     	; 0xf58 <L_5467+0xc2>
loop():
C:\Users\user\Desktop\LedDriver\LedDriver2/LedDriver2.ino:167
			else                {leds[iLed - NUM_LEDS] = CRGB::Yellow;}
     f7e:	44 51       	subi	r20, 0x14	; 20
     f80:	51 09       	sbc	r21, r1
_ZN4CRGBaSEm():
C:\Users\user\Documents\Arduino\libraries\FastLED\src/pixeltypes.h:212

    /// Allow assignment from 32-bit (really 24-bit) 0xRRGGBB color code
    /// @param colorcode a packed 24 bit color code
    inline CRGB& operator= (const uint32_t colorcode) __attribute__((always_inline))
    {
        r = (colorcode >> 16) & 0xFF;
     f82:	fa 01       	movw	r30, r20
     f84:	ee 0f       	add	r30, r30
     f86:	ff 1f       	adc	r31, r31
     f88:	f1 cf       	rjmp	.-30     	; 0xf6c <L_5467+0xd6>
     f8a:	30 93 d4 00 	sts	0x00D4, r19	; 0x8000d4 <iLed>
loop():
C:\Users\user\Desktop\LedDriver\LedDriver2/LedDriver2.ino:169
		}
		if  (iFrame == NUM_LEDS)        { iFrame = 0;}
     f8e:	24 31       	cpi	r18, 0x14	; 20
     f90:	19 f4       	brne	.+6      	; 0xf98 <L_5467+0x102>
C:\Users\user\Desktop\LedDriver\LedDriver2/LedDriver2.ino:284
			ResetStatus = 0;
		}
		if(xFrame == 0)	{
			for (iLed = NUM_LEDS-1; iLed > iFrame; iLed--) { leds[iLed] = CRGB(0,255,0); }
			xFrame++;
			iFrame = 0;
     f92:	10 92 19 01 	sts	0x0119, r1	; 0x800119 <iFrame>
     f96:	03 c0       	rjmp	.+6      	; 0xf9e <L_5467+0x108>
C:\Users\user\Desktop\LedDriver\LedDriver2/LedDriver2.ino:170
		for (iLed = iFrame; iLed < (iFrame + 5); iLed++) {
			if(iLed < NUM_LEDS) {leds[iLed] = CRGB::Yellow;}
			else                {leds[iLed - NUM_LEDS] = CRGB::Yellow;}
		}
		if  (iFrame == NUM_LEDS)        { iFrame = 0;}
		else                            { iFrame++; }
     f98:	2f 5f       	subi	r18, 0xFF	; 255
     f9a:	20 93 19 01 	sts	0x0119, r18	; 0x800119 <iFrame>
C:\Users\user\Desktop\LedDriver\LedDriver2/LedDriver2.ino:171
		FastLED.show();
     f9e:	f3 d8       	rcall	.-3610   	; 0x186 <CFastLED::show() [clone .constprop.13]>
C:\Users\user\Desktop\LedDriver\LedDriver2/LedDriver2.ino:172
		FrameDelay = 15;
     fa0:	8f e0       	ldi	r24, 0x0F	; 15
     fa2:	f6 ce       	rjmp	.-532    	; 0xd90 <main+0x268>
C:\Users\user\Desktop\LedDriver\LedDriver2/LedDriver2.ino:175
  	}	
  	//////////////////// STATUS 10 ///////////////////////
  	else if(Status == 10)  {
     fa4:	8a 30       	cpi	r24, 0x0A	; 10
     fa6:	29 f5       	brne	.+74     	; 0xff2 <L_5467+0x15c>
C:\Users\user\Desktop\LedDriver\LedDriver2/LedDriver2.ino:176
    	if(iFrame == 0) {
     fa8:	80 91 19 01 	lds	r24, 0x0119	; 0x800119 <iFrame>
     fac:	81 11       	cpse	r24, r1
     fae:	03 c0       	rjmp	.+6      	; 0xfb6 <L_5467+0x120>
C:\Users\user\Desktop\LedDriver\LedDriver2/LedDriver2.ino:177
			ColorLeds(CRGB::Black);
     fb0:	60 e0       	ldi	r22, 0x00	; 0
     fb2:	70 e0       	ldi	r23, 0x00	; 0
     fb4:	ff dc       	rcall	.-1538   	; 0x9b4 <ColorLeds(CRGB)>
random():
C:\Users\user\AppData\Local\Arduino15\packages\MiniCore\hardware\avr\3.0.0\cores\MCUdude_corefiles/WMath.cpp:40
     fb6:	05 d5       	rcall	.+2570   	; 0x19c2 <random>
     fb8:	4b 01       	movw	r8, r22
     fba:	5c 01       	movw	r10, r24
     fbc:	02 d5       	rcall	.+2564   	; 0x19c2 <random>
     fbe:	a3 01       	movw	r20, r6
     fc0:	92 01       	movw	r18, r4
     fc2:	54 d5       	rcall	.+2728   	; 0x1a6c <__divmodsi4>
loop():
C:\Users\user\Desktop\LedDriver\LedDriver2/LedDriver2.ino:189
  	else if(Status == 11)  {
    	if(iFrame == 0) {
			ColorLeds(CRGB::Black);
		}
		iFrame = 1;
		leds[random(NUM_LEDS)] = CRGB(0, 0, random(255)); 
     fc4:	8b 01       	movw	r16, r22
     fc6:	00 0f       	add	r16, r16
     fc8:	11 1f       	adc	r17, r17
     fca:	06 0f       	add	r16, r22
     fcc:	17 1f       	adc	r17, r23
     fce:	0b 52       	subi	r16, 0x2B	; 43
     fd0:	1f 4f       	sbci	r17, 0xFF	; 255
     fd2:	f8 01       	movw	r30, r16
     fd4:	10 82       	st	Z, r1
     fd6:	11 82       	std	Z+1, r1	; 0x01
random():
C:\Users\user\AppData\Local\Arduino15\packages\MiniCore\hardware\avr\3.0.0\cores\MCUdude_corefiles/WMath.cpp:40
     fd8:	c5 01       	movw	r24, r10
     fda:	b4 01       	movw	r22, r8
     fdc:	a7 01       	movw	r20, r14
     fde:	96 01       	movw	r18, r12
     fe0:	45 d5       	rcall	.+2698   	; 0x1a6c <__divmodsi4>
loop():
C:\Users\user\Desktop\LedDriver\LedDriver2/LedDriver2.ino:189
     fe2:	d8 01       	movw	r26, r16
     fe4:	12 96       	adiw	r26, 0x02	; 2
     fe6:	6c 93       	st	X, r22
C:\Users\user\Desktop\LedDriver\LedDriver2/LedDriver2.ino:190
		FrameDelay = 10;
     fe8:	8a e0       	ldi	r24, 0x0A	; 10
C:\Users\user\Desktop\LedDriver\LedDriver2/LedDriver2.ino:249
		else	{
			for (iLed=NUM_LEDS - 1; iLed > iFrame; iLed--) { leds[iLed] = CRGB::Yellow; }
			leds[iFrame] = CRGB::Blue;
			iFrame--;
		}
		FrameDelay = 5;
     fea:	80 93 1b 01 	sts	0x011B, r24	; 0x80011b <FrameDelay>
C:\Users\user\Desktop\LedDriver\LedDriver2/LedDriver2.ino:250
		FastLED.show();
     fee:	cb d8       	rcall	.-3690   	; 0x186 <CFastLED::show() [clone .constprop.13]>
     ff0:	d1 ce       	rjmp	.-606    	; 0xd94 <main+0x26c>
C:\Users\user\Desktop\LedDriver\LedDriver2/LedDriver2.ino:184
		leds[random(NUM_LEDS)] = CRGB(0, 0, random(255)); 
		FrameDelay = 10;
		FastLED.show();
  	}
  	//////////////////// STATUS 11 ///////////////////////
  	else if(Status == 11)  {
     ff2:	8b 30       	cpi	r24, 0x0B	; 11
     ff4:	59 f4       	brne	.+22     	; 0x100c <L_5467+0x176>
C:\Users\user\Desktop\LedDriver\LedDriver2/LedDriver2.ino:185
    	if(iFrame == 0) {
     ff6:	80 91 19 01 	lds	r24, 0x0119	; 0x800119 <iFrame>
     ffa:	81 11       	cpse	r24, r1
     ffc:	03 c0       	rjmp	.+6      	; 0x1004 <L_5467+0x16e>
C:\Users\user\Desktop\LedDriver\LedDriver2/LedDriver2.ino:186
			ColorLeds(CRGB::Black);
     ffe:	60 e0       	ldi	r22, 0x00	; 0
    1000:	70 e0       	ldi	r23, 0x00	; 0
    1002:	d8 dc       	rcall	.-1616   	; 0x9b4 <ColorLeds(CRGB)>
C:\Users\user\Desktop\LedDriver\LedDriver2/LedDriver2.ino:188
		}
		iFrame = 1;
    1004:	81 e0       	ldi	r24, 0x01	; 1
    1006:	80 93 19 01 	sts	0x0119, r24	; 0x800119 <iFrame>
    100a:	d5 cf       	rjmp	.-86     	; 0xfb6 <L_5467+0x120>
C:\Users\user\Desktop\LedDriver\LedDriver2/LedDriver2.ino:194
		leds[random(NUM_LEDS)] = CRGB(0, 0, random(255)); 
		FrameDelay = 10;
		FastLED.show();
  	}
	//////////////////// STATUS 12 ///////////////////////
	else if(Status == 12)  {
    100c:	8c 30       	cpi	r24, 0x0C	; 12
    100e:	09 f0       	breq	.+2      	; 0x1012 <L_5467+0x17c>
    1010:	57 c0       	rjmp	.+174    	; 0x10c0 <L_5467+0x22a>
    1012:	e5 ed       	ldi	r30, 0xD5	; 213
    1014:	f0 e0       	ldi	r31, 0x00	; 0
C:\Users\user\Desktop\LedDriver\LedDriver2/LedDriver2.ino:195
		for (iLed = 0; iLed<NUM_LEDS; iLed++) { leds[iLed] = CRGB::Black; }
    1016:	85 e1       	ldi	r24, 0x15	; 21
    1018:	81 50       	subi	r24, 0x01	; 1
    101a:	29 f0       	breq	.+10     	; 0x1026 <L_5467+0x190>
_ZN4CRGBaSEm():
C:\Users\user\Documents\Arduino\libraries\FastLED\src/pixeltypes.h:212
    101c:	10 82       	st	Z, r1
C:\Users\user\Documents\Arduino\libraries\FastLED\src/pixeltypes.h:213
        g = (colorcode >>  8) & 0xFF;
    101e:	11 82       	std	Z+1, r1	; 0x01
C:\Users\user\Documents\Arduino\libraries\FastLED\src/pixeltypes.h:214
        b = (colorcode >>  0) & 0xFF;
    1020:	12 82       	std	Z+2, r1	; 0x02
    1022:	33 96       	adiw	r30, 0x03	; 3
    1024:	f9 cf       	rjmp	.-14     	; 0x1018 <L_5467+0x182>
loop():
C:\Users\user\Desktop\LedDriver\LedDriver2/LedDriver2.ino:196
		for (iLed = iFrame; iLed < (iFrame + 2); iLed++) { leds[iLed] = CRGB::Blue;}
    1026:	a0 91 19 01 	lds	r26, 0x0119	; 0x800119 <iFrame>
    102a:	ba 2f       	mov	r27, r26
    102c:	2a 2f       	mov	r18, r26
    102e:	30 e0       	ldi	r19, 0x00	; 0
    1030:	b9 01       	movw	r22, r18
    1032:	6f 5f       	subi	r22, 0xFF	; 255
    1034:	7f 4f       	sbci	r23, 0xFF	; 255
_ZN4CRGBaSEm():
C:\Users\user\Documents\Arduino\libraries\FastLED\src/pixeltypes.h:214
    1036:	1f ef       	ldi	r17, 0xFF	; 255
loop():
C:\Users\user\Desktop\LedDriver\LedDriver2/LedDriver2.ino:196
    1038:	8b 2f       	mov	r24, r27
    103a:	90 e0       	ldi	r25, 0x00	; 0
    103c:	bf 5f       	subi	r27, 0xFF	; 255
    103e:	68 17       	cp	r22, r24
    1040:	79 07       	cpc	r23, r25
    1042:	64 f0       	brlt	.+24     	; 0x105c <L_5467+0x1c6>
_ZN4CRGBaSEm():
C:\Users\user\Documents\Arduino\libraries\FastLED\src/pixeltypes.h:212

    /// Allow assignment from 32-bit (really 24-bit) 0xRRGGBB color code
    /// @param colorcode a packed 24 bit color code
    inline CRGB& operator= (const uint32_t colorcode) __attribute__((always_inline))
    {
        r = (colorcode >> 16) & 0xFF;
    1044:	ac 01       	movw	r20, r24
    1046:	44 0f       	add	r20, r20
    1048:	55 1f       	adc	r21, r21
    104a:	84 0f       	add	r24, r20
    104c:	95 1f       	adc	r25, r21
    104e:	fc 01       	movw	r30, r24
    1050:	eb 52       	subi	r30, 0x2B	; 43
    1052:	ff 4f       	sbci	r31, 0xFF	; 255
    1054:	10 82       	st	Z, r1
C:\Users\user\Documents\Arduino\libraries\FastLED\src/pixeltypes.h:213
        g = (colorcode >>  8) & 0xFF;
    1056:	11 82       	std	Z+1, r1	; 0x01
C:\Users\user\Documents\Arduino\libraries\FastLED\src/pixeltypes.h:214
        b = (colorcode >>  0) & 0xFF;
    1058:	12 83       	std	Z+2, r17	; 0x02
    105a:	ee cf       	rjmp	.-36     	; 0x1038 <L_5467+0x1a2>
loop():
C:\Users\user\Desktop\LedDriver\LedDriver2/LedDriver2.ino:197
		for (iLed = NUM_LEDS - 1 - iFrame; iLed > (NUM_LEDS - 3 - iFrame); iLed--) { leds[iLed] = CRGB::Blue;}
    105c:	83 e1       	ldi	r24, 0x13	; 19
    105e:	8a 1b       	sub	r24, r26
    1060:	41 e1       	ldi	r20, 0x11	; 17
    1062:	50 e0       	ldi	r21, 0x00	; 0
    1064:	42 1b       	sub	r20, r18
    1066:	53 0b       	sbc	r21, r19
_ZN4CRGBaSEm():
C:\Users\user\Documents\Arduino\libraries\FastLED\src/pixeltypes.h:214
    1068:	7f ef       	ldi	r23, 0xFF	; 255
loop():
C:\Users\user\Desktop\LedDriver\LedDriver2/LedDriver2.ino:197
    106a:	28 2f       	mov	r18, r24
    106c:	30 e0       	ldi	r19, 0x00	; 0
    106e:	6f ef       	ldi	r22, 0xFF	; 255
    1070:	68 0f       	add	r22, r24
    1072:	42 17       	cp	r20, r18
    1074:	53 07       	cpc	r21, r19
    1076:	6c f4       	brge	.+26     	; 0x1092 <L_5467+0x1fc>
_ZN4CRGBaSEm():
C:\Users\user\Documents\Arduino\libraries\FastLED\src/pixeltypes.h:212

    /// Allow assignment from 32-bit (really 24-bit) 0xRRGGBB color code
    /// @param colorcode a packed 24 bit color code
    inline CRGB& operator= (const uint32_t colorcode) __attribute__((always_inline))
    {
        r = (colorcode >> 16) & 0xFF;
    1078:	c9 01       	movw	r24, r18
    107a:	88 0f       	add	r24, r24
    107c:	99 1f       	adc	r25, r25
    107e:	82 0f       	add	r24, r18
    1080:	93 1f       	adc	r25, r19
    1082:	fc 01       	movw	r30, r24
    1084:	eb 52       	subi	r30, 0x2B	; 43
    1086:	ff 4f       	sbci	r31, 0xFF	; 255
    1088:	10 82       	st	Z, r1
C:\Users\user\Documents\Arduino\libraries\FastLED\src/pixeltypes.h:213
        g = (colorcode >>  8) & 0xFF;
    108a:	11 82       	std	Z+1, r1	; 0x01
C:\Users\user\Documents\Arduino\libraries\FastLED\src/pixeltypes.h:214
        b = (colorcode >>  0) & 0xFF;
    108c:	72 83       	std	Z+2, r23	; 0x02
    108e:	86 2f       	mov	r24, r22
    1090:	ec cf       	rjmp	.-40     	; 0x106a <L_5467+0x1d4>
    1092:	80 93 d4 00 	sts	0x00D4, r24	; 0x8000d4 <iLed>
loop():
C:\Users\user\Desktop\LedDriver\LedDriver2/LedDriver2.ino:198
		if		(iFrame + 2 == NUM_LEDS/2)	{CountDir = CountDown;}
    1096:	a8 30       	cpi	r26, 0x08	; 8
    1098:	61 f4       	brne	.+24     	; 0x10b2 <L_5467+0x21c>
    109a:	81 e0       	ldi	r24, 0x01	; 1
    109c:	80 93 17 01 	sts	0x0117, r24	; 0x800117 <CountDir>
C:\Users\user\Desktop\LedDriver\LedDriver2/LedDriver2.ino:200
		else if	(iFrame == 0)				{CountDir = CountUp;}
		if		(CountDir == CountUp)		{ iFrame ++;}
    10a0:	80 91 17 01 	lds	r24, 0x0117	; 0x800117 <CountDir>
    10a4:	81 11       	cpse	r24, r1
    10a6:	0a c0       	rjmp	.+20     	; 0x10bc <L_5467+0x226>
    10a8:	af 5f       	subi	r26, 0xFF	; 255
C:\Users\user\Desktop\LedDriver\LedDriver2/LedDriver2.ino:201
		else								{ iFrame --;}
    10aa:	a0 93 19 01 	sts	0x0119, r26	; 0x800119 <iFrame>
C:\Users\user\Desktop\LedDriver\LedDriver2/LedDriver2.ino:202
		FrameDelay = 20;
    10ae:	84 e1       	ldi	r24, 0x14	; 20
    10b0:	9c cf       	rjmp	.-200    	; 0xfea <L_5467+0x154>
C:\Users\user\Desktop\LedDriver\LedDriver2/LedDriver2.ino:199
	else if(Status == 12)  {
		for (iLed = 0; iLed<NUM_LEDS; iLed++) { leds[iLed] = CRGB::Black; }
		for (iLed = iFrame; iLed < (iFrame + 2); iLed++) { leds[iLed] = CRGB::Blue;}
		for (iLed = NUM_LEDS - 1 - iFrame; iLed > (NUM_LEDS - 3 - iFrame); iLed--) { leds[iLed] = CRGB::Blue;}
		if		(iFrame + 2 == NUM_LEDS/2)	{CountDir = CountDown;}
		else if	(iFrame == 0)				{CountDir = CountUp;}
    10b2:	a1 11       	cpse	r26, r1
    10b4:	f5 cf       	rjmp	.-22     	; 0x10a0 <L_5467+0x20a>
    10b6:	10 92 17 01 	sts	0x0117, r1	; 0x800117 <CountDir>
    10ba:	f2 cf       	rjmp	.-28     	; 0x10a0 <L_5467+0x20a>
C:\Users\user\Desktop\LedDriver\LedDriver2/LedDriver2.ino:201
		if		(CountDir == CountUp)		{ iFrame ++;}
		else								{ iFrame --;}
    10bc:	a1 50       	subi	r26, 0x01	; 1
    10be:	f5 cf       	rjmp	.-22     	; 0x10aa <L_5467+0x214>
C:\Users\user\Desktop\LedDriver\LedDriver2/LedDriver2.ino:206
		FrameDelay = 20;
		FastLED.show();
  	}
	//////////////////// STATUS 13 ///////////////////////
	else if(Status == 13)  {
    10c0:	8d 30       	cpi	r24, 0x0D	; 13
    10c2:	09 f0       	breq	.+2      	; 0x10c6 <L_5467+0x230>
    10c4:	bf c0       	rjmp	.+382    	; 0x1244 <L_5467+0x3ae>
C:\Users\user\Desktop\LedDriver\LedDriver2/LedDriver2.ino:207
		if(ResetStatus == 1) {	
    10c6:	80 91 16 01 	lds	r24, 0x0116	; 0x800116 <ResetStatus>
    10ca:	81 30       	cpi	r24, 0x01	; 1
    10cc:	69 f4       	brne	.+26     	; 0x10e8 <L_5467+0x252>
C:\Users\user\Desktop\LedDriver\LedDriver2/LedDriver2.ino:208
			ColorLeds(CRGB::Blue);
    10ce:	60 e0       	ldi	r22, 0x00	; 0
    10d0:	70 e0       	ldi	r23, 0x00	; 0
    10d2:	8f ef       	ldi	r24, 0xFF	; 255
    10d4:	6f dc       	rcall	.-1826   	; 0x9b4 <ColorLeds(CRGB)>
C:\Users\user\Desktop\LedDriver\LedDriver2/LedDriver2.ino:209
			xFrame = NUM_LEDS;
    10d6:	84 e1       	ldi	r24, 0x14	; 20
    10d8:	80 93 18 01 	sts	0x0118, r24	; 0x800118 <xFrame>
C:\Users\user\Desktop\LedDriver\LedDriver2/LedDriver2.ino:210
			iFrame = 0;
    10dc:	10 92 19 01 	sts	0x0119, r1	; 0x800119 <iFrame>
C:\Users\user\Desktop\LedDriver\LedDriver2/LedDriver2.ino:211
			CountDir = CountUp;
    10e0:	10 92 17 01 	sts	0x0117, r1	; 0x800117 <CountDir>
C:\Users\user\Desktop\LedDriver\LedDriver2/LedDriver2.ino:212
			ResetStatus = 0;
    10e4:	10 92 16 01 	sts	0x0116, r1	; 0x800116 <ResetStatus>
C:\Users\user\Desktop\LedDriver\LedDriver2/LedDriver2.ino:214
		}
		if(xFrame == 255)	{
    10e8:	20 91 18 01 	lds	r18, 0x0118	; 0x800118 <xFrame>
    10ec:	2f 3f       	cpi	r18, 0xFF	; 255
    10ee:	b9 f4       	brne	.+46     	; 0x111e <L_5467+0x288>
    10f0:	e5 ed       	ldi	r30, 0xD5	; 213
    10f2:	f0 e0       	ldi	r31, 0x00	; 0
C:\Users\user\Desktop\LedDriver\LedDriver2/LedDriver2.ino:215
			for (iLed=0; iLed < NUM_LEDS; iLed++) 	{ leds[iLed] = CRGB::Yellow;}
    10f4:	85 e1       	ldi	r24, 0x15	; 21
_ZN4CRGBaSEm():
C:\Users\user\Documents\Arduino\libraries\FastLED\src/pixeltypes.h:212

    /// Allow assignment from 32-bit (really 24-bit) 0xRRGGBB color code
    /// @param colorcode a packed 24 bit color code
    inline CRGB& operator= (const uint32_t colorcode) __attribute__((always_inline))
    {
        r = (colorcode >> 16) & 0xFF;
    10f6:	9f ef       	ldi	r25, 0xFF	; 255
    10f8:	81 50       	subi	r24, 0x01	; 1
loop():
C:\Users\user\Desktop\LedDriver\LedDriver2/LedDriver2.ino:215
    10fa:	29 f0       	breq	.+10     	; 0x1106 <L_5467+0x270>
_ZN4CRGBaSEm():
C:\Users\user\Documents\Arduino\libraries\FastLED\src/pixeltypes.h:212
    10fc:	90 83       	st	Z, r25
C:\Users\user\Documents\Arduino\libraries\FastLED\src/pixeltypes.h:213
        g = (colorcode >>  8) & 0xFF;
    10fe:	91 83       	std	Z+1, r25	; 0x01
C:\Users\user\Documents\Arduino\libraries\FastLED\src/pixeltypes.h:214
        b = (colorcode >>  0) & 0xFF;
    1100:	12 82       	std	Z+2, r1	; 0x02
    1102:	33 96       	adiw	r30, 0x03	; 3
    1104:	f9 cf       	rjmp	.-14     	; 0x10f8 <L_5467+0x262>
    1106:	84 e1       	ldi	r24, 0x14	; 20
    1108:	80 93 d4 00 	sts	0x00D4, r24	; 0x8000d4 <iLed>
loop():
C:\Users\user\Desktop\LedDriver\LedDriver2/LedDriver2.ino:216
			CountDir = CountDown;
    110c:	81 e0       	ldi	r24, 0x01	; 1
    110e:	80 93 17 01 	sts	0x0117, r24	; 0x800117 <CountDir>
C:\Users\user\Desktop\LedDriver\LedDriver2/LedDriver2.ino:217
			xFrame = 0;
    1112:	10 92 18 01 	sts	0x0118, r1	; 0x800118 <xFrame>
C:\Users\user\Desktop\LedDriver\LedDriver2/LedDriver2.ino:236
				iFrame = 0;
			}
			else{
				leds[iFrame] = CRGB::Blue;
				xFrame = xFrame + 1;
				iFrame = NUM_LEDS - 1;
    1116:	83 e1       	ldi	r24, 0x13	; 19
C:\Users\user\Desktop\LedDriver\LedDriver2/LedDriver2.ino:247
			iFrame++;
		}
		else	{
			for (iLed=NUM_LEDS - 1; iLed > iFrame; iLed--) { leds[iLed] = CRGB::Yellow; }
			leds[iFrame] = CRGB::Blue;
			iFrame--;
    1118:	80 93 19 01 	sts	0x0119, r24	; 0x800119 <iFrame>
    111c:	17 c0       	rjmp	.+46     	; 0x114c <L_5467+0x2b6>
C:\Users\user\Desktop\LedDriver\LedDriver2/LedDriver2.ino:220
			for (iLed=0; iLed < NUM_LEDS; iLed++) 	{ leds[iLed] = CRGB::Yellow;}
			CountDir = CountDown;
			xFrame = 0;
			iFrame = NUM_LEDS - 1;
		}
		else if(xFrame == NUM_LEDS)	{
    111e:	24 31       	cpi	r18, 0x14	; 20
    1120:	b9 f4       	brne	.+46     	; 0x1150 <L_5467+0x2ba>
    1122:	e5 ed       	ldi	r30, 0xD5	; 213
    1124:	f0 e0       	ldi	r31, 0x00	; 0
C:\Users\user\Desktop\LedDriver\LedDriver2/LedDriver2.ino:221
			for (iLed=0; iLed < NUM_LEDS; iLed++) 	{ leds[iLed] = CRGB::Blue;}
    1126:	85 e1       	ldi	r24, 0x15	; 21
_ZN4CRGBaSEm():
C:\Users\user\Documents\Arduino\libraries\FastLED\src/pixeltypes.h:214
    1128:	9f ef       	ldi	r25, 0xFF	; 255
    112a:	81 50       	subi	r24, 0x01	; 1
loop():
C:\Users\user\Desktop\LedDriver\LedDriver2/LedDriver2.ino:221
    112c:	29 f0       	breq	.+10     	; 0x1138 <L_5467+0x2a2>
_ZN4CRGBaSEm():
C:\Users\user\Documents\Arduino\libraries\FastLED\src/pixeltypes.h:212

    /// Allow assignment from 32-bit (really 24-bit) 0xRRGGBB color code
    /// @param colorcode a packed 24 bit color code
    inline CRGB& operator= (const uint32_t colorcode) __attribute__((always_inline))
    {
        r = (colorcode >> 16) & 0xFF;
    112e:	10 82       	st	Z, r1
C:\Users\user\Documents\Arduino\libraries\FastLED\src/pixeltypes.h:213
        g = (colorcode >>  8) & 0xFF;
    1130:	11 82       	std	Z+1, r1	; 0x01
C:\Users\user\Documents\Arduino\libraries\FastLED\src/pixeltypes.h:214
        b = (colorcode >>  0) & 0xFF;
    1132:	92 83       	std	Z+2, r25	; 0x02
    1134:	33 96       	adiw	r30, 0x03	; 3
    1136:	f9 cf       	rjmp	.-14     	; 0x112a <L_5467+0x294>
    1138:	84 e1       	ldi	r24, 0x14	; 20
    113a:	80 93 d4 00 	sts	0x00D4, r24	; 0x8000d4 <iLed>
loop():
C:\Users\user\Desktop\LedDriver\LedDriver2/LedDriver2.ino:222
			CountDir = CountUp;
    113e:	10 92 17 01 	sts	0x0117, r1	; 0x800117 <CountDir>
C:\Users\user\Desktop\LedDriver\LedDriver2/LedDriver2.ino:223
			xFrame = NUM_LEDS - 1;
    1142:	83 e1       	ldi	r24, 0x13	; 19
    1144:	80 93 18 01 	sts	0x0118, r24	; 0x800118 <xFrame>
C:\Users\user\Desktop\LedDriver\LedDriver2/LedDriver2.ino:231
		else if(iFrame == xFrame)	{
			for (iLed=0; iLed < iFrame; iLed++) 	{ leds[iLed] = CRGB::Blue;}
			for (; iLed < NUM_LEDS; iLed++) 		{ leds[iLed] = CRGB::Yellow;}	
			if(CountDir == CountUp)	{
				xFrame = xFrame - 1;
				iFrame = 0;
    1148:	10 92 19 01 	sts	0x0119, r1	; 0x800119 <iFrame>
C:\Users\user\Desktop\LedDriver\LedDriver2/LedDriver2.ino:249
		else	{
			for (iLed=NUM_LEDS - 1; iLed > iFrame; iLed--) { leds[iLed] = CRGB::Yellow; }
			leds[iFrame] = CRGB::Blue;
			iFrame--;
		}
		FrameDelay = 5;
    114c:	85 e0       	ldi	r24, 0x05	; 5
    114e:	4d cf       	rjmp	.-358    	; 0xfea <L_5467+0x154>
C:\Users\user\Desktop\LedDriver\LedDriver2/LedDriver2.ino:226
			for (iLed=0; iLed < NUM_LEDS; iLed++) 	{ leds[iLed] = CRGB::Blue;}
			CountDir = CountUp;
			xFrame = NUM_LEDS - 1;
			iFrame = 0;
		}	
		else if(iFrame == xFrame)	{
    1150:	80 91 19 01 	lds	r24, 0x0119	; 0x800119 <iFrame>
    1154:	90 91 17 01 	lds	r25, 0x0117	; 0x800117 <CountDir>
    1158:	e5 ed       	ldi	r30, 0xD5	; 213
    115a:	f0 e0       	ldi	r31, 0x00	; 0
    115c:	28 13       	cpse	r18, r24
    115e:	32 c0       	rjmp	.+100    	; 0x11c4 <L_5467+0x32e>
C:\Users\user\Desktop\LedDriver\LedDriver2/LedDriver2.ino:227
			for (iLed=0; iLed < iFrame; iLed++) 	{ leds[iLed] = CRGB::Blue;}
    1160:	40 e0       	ldi	r20, 0x00	; 0
_ZN4CRGBaSEm():
C:\Users\user\Documents\Arduino\libraries\FastLED\src/pixeltypes.h:214
    1162:	2f ef       	ldi	r18, 0xFF	; 255
loop():
C:\Users\user\Desktop\LedDriver\LedDriver2/LedDriver2.ino:227
    1164:	84 13       	cpse	r24, r20
    1166:	0f c0       	rjmp	.+30     	; 0x1186 <L_5467+0x2f0>
    1168:	8c 9f       	mul	r24, r28
    116a:	f0 01       	movw	r30, r0
    116c:	11 24       	eor	r1, r1
    116e:	eb 52       	subi	r30, 0x2B	; 43
    1170:	ff 4f       	sbci	r31, 0xFF	; 255
    1172:	28 2f       	mov	r18, r24
_ZN4CRGBaSEm():
C:\Users\user\Documents\Arduino\libraries\FastLED\src/pixeltypes.h:212

    /// Allow assignment from 32-bit (really 24-bit) 0xRRGGBB color code
    /// @param colorcode a packed 24 bit color code
    inline CRGB& operator= (const uint32_t colorcode) __attribute__((always_inline))
    {
        r = (colorcode >> 16) & 0xFF;
    1174:	3f ef       	ldi	r19, 0xFF	; 255
loop():
C:\Users\user\Desktop\LedDriver\LedDriver2/LedDriver2.ino:228
			for (; iLed < NUM_LEDS; iLed++) 		{ leds[iLed] = CRGB::Yellow;}	
    1176:	24 31       	cpi	r18, 0x14	; 20
    1178:	60 f4       	brcc	.+24     	; 0x1192 <L_5467+0x2fc>
_ZN4CRGBaSEm():
C:\Users\user\Documents\Arduino\libraries\FastLED\src/pixeltypes.h:212
    117a:	30 83       	st	Z, r19
C:\Users\user\Documents\Arduino\libraries\FastLED\src/pixeltypes.h:213
        g = (colorcode >>  8) & 0xFF;
    117c:	31 83       	std	Z+1, r19	; 0x01
C:\Users\user\Documents\Arduino\libraries\FastLED\src/pixeltypes.h:214
        b = (colorcode >>  0) & 0xFF;
    117e:	12 82       	std	Z+2, r1	; 0x02
loop():
C:\Users\user\Desktop\LedDriver\LedDriver2/LedDriver2.ino:228
    1180:	2f 5f       	subi	r18, 0xFF	; 255
    1182:	33 96       	adiw	r30, 0x03	; 3
    1184:	f8 cf       	rjmp	.-16     	; 0x1176 <L_5467+0x2e0>
_ZN4CRGBaSEm():
C:\Users\user\Documents\Arduino\libraries\FastLED\src/pixeltypes.h:212

    /// Allow assignment from 32-bit (really 24-bit) 0xRRGGBB color code
    /// @param colorcode a packed 24 bit color code
    inline CRGB& operator= (const uint32_t colorcode) __attribute__((always_inline))
    {
        r = (colorcode >> 16) & 0xFF;
    1186:	10 82       	st	Z, r1
C:\Users\user\Documents\Arduino\libraries\FastLED\src/pixeltypes.h:213
        g = (colorcode >>  8) & 0xFF;
    1188:	11 82       	std	Z+1, r1	; 0x01
C:\Users\user\Documents\Arduino\libraries\FastLED\src/pixeltypes.h:214
        b = (colorcode >>  0) & 0xFF;
    118a:	22 83       	std	Z+2, r18	; 0x02
    118c:	4f 5f       	subi	r20, 0xFF	; 255
    118e:	33 96       	adiw	r30, 0x03	; 3
    1190:	e9 cf       	rjmp	.-46     	; 0x1164 <L_5467+0x2ce>
    1192:	20 93 d4 00 	sts	0x00D4, r18	; 0x8000d4 <iLed>
loop():
C:\Users\user\Desktop\LedDriver\LedDriver2/LedDriver2.ino:229
			if(CountDir == CountUp)	{
    1196:	91 11       	cpse	r25, r1
    1198:	04 c0       	rjmp	.+8      	; 0x11a2 <L_5467+0x30c>
C:\Users\user\Desktop\LedDriver\LedDriver2/LedDriver2.ino:230
				xFrame = xFrame - 1;
    119a:	41 50       	subi	r20, 0x01	; 1
    119c:	40 93 18 01 	sts	0x0118, r20	; 0x800118 <xFrame>
    11a0:	d3 cf       	rjmp	.-90     	; 0x1148 <L_5467+0x2b2>
C:\Users\user\Desktop\LedDriver\LedDriver2/LedDriver2.ino:234
				iFrame = 0;
			}
			else{
				leds[iFrame] = CRGB::Blue;
    11a2:	90 e0       	ldi	r25, 0x00	; 0
_ZN4CRGBaSEm():
C:\Users\user\Documents\Arduino\libraries\FastLED\src/pixeltypes.h:212

    /// Allow assignment from 32-bit (really 24-bit) 0xRRGGBB color code
    /// @param colorcode a packed 24 bit color code
    inline CRGB& operator= (const uint32_t colorcode) __attribute__((always_inline))
    {
        r = (colorcode >> 16) & 0xFF;
    11a4:	9c 01       	movw	r18, r24
    11a6:	22 0f       	add	r18, r18
    11a8:	33 1f       	adc	r19, r19
    11aa:	82 0f       	add	r24, r18
    11ac:	93 1f       	adc	r25, r19
    11ae:	fc 01       	movw	r30, r24
    11b0:	eb 52       	subi	r30, 0x2B	; 43
    11b2:	ff 4f       	sbci	r31, 0xFF	; 255
    11b4:	10 82       	st	Z, r1
C:\Users\user\Documents\Arduino\libraries\FastLED\src/pixeltypes.h:213
        g = (colorcode >>  8) & 0xFF;
    11b6:	11 82       	std	Z+1, r1	; 0x01
C:\Users\user\Documents\Arduino\libraries\FastLED\src/pixeltypes.h:214
        b = (colorcode >>  0) & 0xFF;
    11b8:	8f ef       	ldi	r24, 0xFF	; 255
    11ba:	82 83       	std	Z+2, r24	; 0x02
loop():
C:\Users\user\Desktop\LedDriver\LedDriver2/LedDriver2.ino:235
				xFrame = xFrame + 1;
    11bc:	4f 5f       	subi	r20, 0xFF	; 255
    11be:	40 93 18 01 	sts	0x0118, r20	; 0x800118 <xFrame>
    11c2:	a9 cf       	rjmp	.-174    	; 0x1116 <L_5467+0x280>
C:\Users\user\Desktop\LedDriver\LedDriver2/LedDriver2.ino:239
				iFrame = NUM_LEDS - 1;
			}
		}
		else if(CountDir == CountUp)	{
    11c4:	91 11       	cpse	r25, r1
    11c6:	1e c0       	rjmp	.+60     	; 0x1204 <L_5467+0x36e>
_ZN4CRGBaSEm():
C:\Users\user\Documents\Arduino\libraries\FastLED\src/pixeltypes.h:214
    11c8:	2f ef       	ldi	r18, 0xFF	; 255
    11ca:	41 e0       	ldi	r20, 0x01	; 1
    11cc:	49 0f       	add	r20, r25
loop():
C:\Users\user\Desktop\LedDriver\LedDriver2/LedDriver2.ino:240
			for (iLed=0; iLed < iFrame; iLed++) { leds[iLed] = CRGB::Blue;	}
    11ce:	98 17       	cp	r25, r24
    11d0:	31 f0       	breq	.+12     	; 0x11de <L_5467+0x348>
_ZN4CRGBaSEm():
C:\Users\user\Documents\Arduino\libraries\FastLED\src/pixeltypes.h:212

    /// Allow assignment from 32-bit (really 24-bit) 0xRRGGBB color code
    /// @param colorcode a packed 24 bit color code
    inline CRGB& operator= (const uint32_t colorcode) __attribute__((always_inline))
    {
        r = (colorcode >> 16) & 0xFF;
    11d2:	10 82       	st	Z, r1
C:\Users\user\Documents\Arduino\libraries\FastLED\src/pixeltypes.h:213
        g = (colorcode >>  8) & 0xFF;
    11d4:	11 82       	std	Z+1, r1	; 0x01
C:\Users\user\Documents\Arduino\libraries\FastLED\src/pixeltypes.h:214
        b = (colorcode >>  0) & 0xFF;
    11d6:	22 83       	std	Z+2, r18	; 0x02
    11d8:	94 2f       	mov	r25, r20
    11da:	33 96       	adiw	r30, 0x03	; 3
    11dc:	f6 cf       	rjmp	.-20     	; 0x11ca <L_5467+0x334>
    11de:	90 93 d4 00 	sts	0x00D4, r25	; 0x8000d4 <iLed>
loop():
C:\Users\user\Desktop\LedDriver\LedDriver2/LedDriver2.ino:241
			leds[iFrame] = CRGB::Yellow;	
    11e2:	89 2f       	mov	r24, r25
    11e4:	90 e0       	ldi	r25, 0x00	; 0
_ZN4CRGBaSEm():
C:\Users\user\Documents\Arduino\libraries\FastLED\src/pixeltypes.h:212

    /// Allow assignment from 32-bit (really 24-bit) 0xRRGGBB color code
    /// @param colorcode a packed 24 bit color code
    inline CRGB& operator= (const uint32_t colorcode) __attribute__((always_inline))
    {
        r = (colorcode >> 16) & 0xFF;
    11e6:	9c 01       	movw	r18, r24
    11e8:	22 0f       	add	r18, r18
    11ea:	33 1f       	adc	r19, r19
    11ec:	82 0f       	add	r24, r18
    11ee:	93 1f       	adc	r25, r19
    11f0:	fc 01       	movw	r30, r24
    11f2:	eb 52       	subi	r30, 0x2B	; 43
    11f4:	ff 4f       	sbci	r31, 0xFF	; 255
    11f6:	8f ef       	ldi	r24, 0xFF	; 255
    11f8:	80 83       	st	Z, r24
C:\Users\user\Documents\Arduino\libraries\FastLED\src/pixeltypes.h:213
        g = (colorcode >>  8) & 0xFF;
    11fa:	81 83       	std	Z+1, r24	; 0x01
C:\Users\user\Documents\Arduino\libraries\FastLED\src/pixeltypes.h:214
        b = (colorcode >>  0) & 0xFF;
    11fc:	12 82       	std	Z+2, r1	; 0x02
loop():
C:\Users\user\Desktop\LedDriver\LedDriver2/LedDriver2.ino:242
			iFrame++;
    11fe:	40 93 19 01 	sts	0x0119, r20	; 0x800119 <iFrame>
    1202:	a4 cf       	rjmp	.-184    	; 0x114c <L_5467+0x2b6>
C:\Users\user\Desktop\LedDriver\LedDriver2/LedDriver2.ino:245
		}
		else	{
			for (iLed=NUM_LEDS - 1; iLed > iFrame; iLed--) { leds[iLed] = CRGB::Yellow; }
    1204:	93 e1       	ldi	r25, 0x13	; 19
_ZN4CRGBaSEm():
C:\Users\user\Documents\Arduino\libraries\FastLED\src/pixeltypes.h:212

    /// Allow assignment from 32-bit (really 24-bit) 0xRRGGBB color code
    /// @param colorcode a packed 24 bit color code
    inline CRGB& operator= (const uint32_t colorcode) __attribute__((always_inline))
    {
        r = (colorcode >> 16) & 0xFF;
    1206:	2f ef       	ldi	r18, 0xFF	; 255
    1208:	33 97       	sbiw	r30, 0x03	; 3
loop():
C:\Users\user\Desktop\LedDriver\LedDriver2/LedDriver2.ino:245
    120a:	89 17       	cp	r24, r25
    120c:	28 f4       	brcc	.+10     	; 0x1218 <L_5467+0x382>
_ZN4CRGBaSEm():
C:\Users\user\Documents\Arduino\libraries\FastLED\src/pixeltypes.h:212
    120e:	24 af       	std	Z+60, r18	; 0x3c
C:\Users\user\Documents\Arduino\libraries\FastLED\src/pixeltypes.h:213
        g = (colorcode >>  8) & 0xFF;
    1210:	25 af       	std	Z+61, r18	; 0x3d
C:\Users\user\Documents\Arduino\libraries\FastLED\src/pixeltypes.h:214
        b = (colorcode >>  0) & 0xFF;
    1212:	16 ae       	std	Z+62, r1	; 0x3e
    1214:	91 50       	subi	r25, 0x01	; 1
    1216:	f8 cf       	rjmp	.-16     	; 0x1208 <L_5467+0x372>
    1218:	98 2f       	mov	r25, r24
    121a:	84 31       	cpi	r24, 0x14	; 20
    121c:	08 f0       	brcs	.+2      	; 0x1220 <L_5467+0x38a>
    121e:	93 e1       	ldi	r25, 0x13	; 19
    1220:	90 93 d4 00 	sts	0x00D4, r25	; 0x8000d4 <iLed>
loop():
C:\Users\user\Desktop\LedDriver\LedDriver2/LedDriver2.ino:246
			leds[iFrame] = CRGB::Blue;
    1224:	48 2f       	mov	r20, r24
    1226:	50 e0       	ldi	r21, 0x00	; 0
_ZN4CRGBaSEm():
C:\Users\user\Documents\Arduino\libraries\FastLED\src/pixeltypes.h:212

    /// Allow assignment from 32-bit (really 24-bit) 0xRRGGBB color code
    /// @param colorcode a packed 24 bit color code
    inline CRGB& operator= (const uint32_t colorcode) __attribute__((always_inline))
    {
        r = (colorcode >> 16) & 0xFF;
    1228:	9a 01       	movw	r18, r20
    122a:	22 0f       	add	r18, r18
    122c:	33 1f       	adc	r19, r19
    122e:	24 0f       	add	r18, r20
    1230:	35 1f       	adc	r19, r21
    1232:	f9 01       	movw	r30, r18
    1234:	eb 52       	subi	r30, 0x2B	; 43
    1236:	ff 4f       	sbci	r31, 0xFF	; 255
    1238:	10 82       	st	Z, r1
C:\Users\user\Documents\Arduino\libraries\FastLED\src/pixeltypes.h:213
        g = (colorcode >>  8) & 0xFF;
    123a:	11 82       	std	Z+1, r1	; 0x01
C:\Users\user\Documents\Arduino\libraries\FastLED\src/pixeltypes.h:214
        b = (colorcode >>  0) & 0xFF;
    123c:	9f ef       	ldi	r25, 0xFF	; 255
    123e:	92 83       	std	Z+2, r25	; 0x02
loop():
C:\Users\user\Desktop\LedDriver\LedDriver2/LedDriver2.ino:247
			iFrame--;
    1240:	81 50       	subi	r24, 0x01	; 1
    1242:	6a cf       	rjmp	.-300    	; 0x1118 <L_5467+0x282>
C:\Users\user\Desktop\LedDriver\LedDriver2/LedDriver2.ino:253
		}
		FrameDelay = 5;
		FastLED.show();
  	}	
  	//////////////////// STATUS 14 ///////////////////////
  	else if(Status == 14)  {
    1244:	8e 30       	cpi	r24, 0x0E	; 14
    1246:	41 f5       	brne	.+80     	; 0x1298 <L_5467+0x402>
C:\Users\user\Desktop\LedDriver\LedDriver2/LedDriver2.ino:255
		for (iLed=0; iLed<NUM_LEDS; iLed++) {
			if(iLed + iFrame >= NUM_LEDS)	{ leds[iLed] = CRGB(0, 0, Tri[iLed + iFrame - NUM_LEDS]);}
    1248:	60 91 19 01 	lds	r22, 0x0119	; 0x800119 <iFrame>
    124c:	e5 ed       	ldi	r30, 0xD5	; 213
    124e:	f0 e0       	ldi	r31, 0x00	; 0
    1250:	30 e0       	ldi	r19, 0x00	; 0
    1252:	20 e0       	ldi	r18, 0x00	; 0
    1254:	46 2f       	mov	r20, r22
    1256:	50 e0       	ldi	r21, 0x00	; 0
    1258:	ca 01       	movw	r24, r20
    125a:	82 0f       	add	r24, r18
    125c:	93 1f       	adc	r25, r19
    125e:	84 31       	cpi	r24, 0x14	; 20
    1260:	91 05       	cpc	r25, r1
    1262:	b8 f0       	brcs	.+46     	; 0x1292 <L_5467+0x3fc>
    1264:	8a 58       	subi	r24, 0x8A	; 138
    1266:	9f 4f       	sbci	r25, 0xFF	; 255
C:\Users\user\Desktop\LedDriver\LedDriver2/LedDriver2.ino:256
			else									{ leds[iLed] = CRGB(0, 0, Tri[iLed + iFrame]);} 
    1268:	dc 01       	movw	r26, r24
    126a:	8c 91       	ld	r24, X
    126c:	10 82       	st	Z, r1
    126e:	11 82       	std	Z+1, r1	; 0x01
    1270:	82 83       	std	Z+2, r24	; 0x02
    1272:	2f 5f       	subi	r18, 0xFF	; 255
    1274:	3f 4f       	sbci	r19, 0xFF	; 255
    1276:	33 96       	adiw	r30, 0x03	; 3
C:\Users\user\Desktop\LedDriver\LedDriver2/LedDriver2.ino:254
		FrameDelay = 5;
		FastLED.show();
  	}	
  	//////////////////// STATUS 14 ///////////////////////
  	else if(Status == 14)  {
		for (iLed=0; iLed<NUM_LEDS; iLed++) {
    1278:	24 31       	cpi	r18, 0x14	; 20
    127a:	31 05       	cpc	r19, r1
    127c:	69 f7       	brne	.-38     	; 0x1258 <L_5467+0x3c2>
    127e:	84 e1       	ldi	r24, 0x14	; 20
    1280:	80 93 d4 00 	sts	0x00D4, r24	; 0x8000d4 <iLed>
C:\Users\user\Desktop\LedDriver\LedDriver2/LedDriver2.ino:258
			if(iLed + iFrame >= NUM_LEDS)	{ leds[iLed] = CRGB(0, 0, Tri[iLed + iFrame - NUM_LEDS]);}
			else									{ leds[iLed] = CRGB(0, 0, Tri[iLed + iFrame]);} 
		}
		if  (iFrame == NUM_LEDS - 1)    { iFrame = 0;}
    1284:	63 31       	cpi	r22, 0x13	; 19
    1286:	09 f4       	brne	.+2      	; 0x128a <L_5467+0x3f4>
    1288:	84 ce       	rjmp	.-760    	; 0xf92 <L_5467+0xfc>
C:\Users\user\Desktop\LedDriver\LedDriver2/LedDriver2.ino:259
		else                            { iFrame++; }
    128a:	6f 5f       	subi	r22, 0xFF	; 255
    128c:	60 93 19 01 	sts	0x0119, r22	; 0x800119 <iFrame>
    1290:	86 ce       	rjmp	.-756    	; 0xf9e <L_5467+0x108>
C:\Users\user\Desktop\LedDriver\LedDriver2/LedDriver2.ino:256
  	}	
  	//////////////////// STATUS 14 ///////////////////////
  	else if(Status == 14)  {
		for (iLed=0; iLed<NUM_LEDS; iLed++) {
			if(iLed + iFrame >= NUM_LEDS)	{ leds[iLed] = CRGB(0, 0, Tri[iLed + iFrame - NUM_LEDS]);}
			else									{ leds[iLed] = CRGB(0, 0, Tri[iLed + iFrame]);} 
    1292:	86 57       	subi	r24, 0x76	; 118
    1294:	9f 4f       	sbci	r25, 0xFF	; 255
    1296:	e8 cf       	rjmp	.-48     	; 0x1268 <L_5467+0x3d2>
C:\Users\user\Desktop\LedDriver\LedDriver2/LedDriver2.ino:264
		else                            { iFrame++; }
		FastLED.show();
		FrameDelay = 15;
  	}
  	//////////////////// STATUS 15 ///////////////////////
  	else if(Status == 15)  {
    1298:	8f 30       	cpi	r24, 0x0F	; 15
    129a:	91 f4       	brne	.+36     	; 0x12c0 <L_5467+0x42a>
C:\Users\user\Desktop\LedDriver\LedDriver2/LedDriver2.ino:265
		if(ResetStatus)	{
    129c:	80 91 16 01 	lds	r24, 0x0116	; 0x800116 <ResetStatus>
    12a0:	88 23       	and	r24, r24
    12a2:	19 f0       	breq	.+6      	; 0x12aa <L_5467+0x414>
C:\Users\user\Desktop\LedDriver\LedDriver2/LedDriver2.ino:266
			RampInit();
    12a4:	78 db       	rcall	.-2320   	; 0x996 <RampInit()>
C:\Users\user\Desktop\LedDriver\LedDriver2/LedDriver2.ino:267
			ResetStatus = 0;
    12a6:	10 92 16 01 	sts	0x0116, r1	; 0x800116 <ResetStatus>
C:\Users\user\Desktop\LedDriver\LedDriver2/LedDriver2.ino:449
		Vect[3] = 255;
		Vect[NUM_LEDS/2] = 255;
		Vect[NUM_LEDS/2 + 1] = 255;
		Vect[NUM_LEDS/2 + 2] = 255;
		Vect[NUM_LEDS/2 + 3] = 255;
		ShiftLed(BlueDD);
    12aa:	82 e0       	ldi	r24, 0x02	; 2
    12ac:	a2 db       	rcall	.-2236   	; 0x9f2 <ShiftLed(unsigned char)>
C:\Users\user\Desktop\LedDriver\LedDriver2/LedDriver2.ino:450
		if  (iFrame == NUM_LEDS - 1)    { iFrame = 0;}
    12ae:	80 91 19 01 	lds	r24, 0x0119	; 0x800119 <iFrame>
    12b2:	83 31       	cpi	r24, 0x13	; 19
    12b4:	09 f4       	brne	.+2      	; 0x12b8 <L_5467+0x422>
    12b6:	6d ce       	rjmp	.-806    	; 0xf92 <L_5467+0xfc>
C:\Users\user\Desktop\LedDriver\LedDriver2/LedDriver2.ino:451
		else                            { iFrame++; }
    12b8:	8f 5f       	subi	r24, 0xFF	; 255
    12ba:	80 93 19 01 	sts	0x0119, r24	; 0x800119 <iFrame>
    12be:	6f ce       	rjmp	.-802    	; 0xf9e <L_5467+0x108>
C:\Users\user\Desktop\LedDriver\LedDriver2/LedDriver2.ino:276
		else                            { iFrame++; }
		FastLED.show();
		FrameDelay = 15;
  	}
  	//////////////////// STATUS 16 ///////////////////////
  	else if(Status == 16)  {
    12c0:	80 31       	cpi	r24, 0x10	; 16
    12c2:	09 f0       	breq	.+2      	; 0x12c6 <L_5467+0x430>
    12c4:	6b c2       	rjmp	.+1238   	; 0x179c <L_5467+0x906>
C:\Users\user\Desktop\LedDriver\LedDriver2/LedDriver2.ino:277
		if(ResetStatus)	{
    12c6:	80 91 16 01 	lds	r24, 0x0116	; 0x800116 <ResetStatus>
    12ca:	88 23       	and	r24, r24
    12cc:	19 f0       	breq	.+6      	; 0x12d4 <L_5467+0x43e>
C:\Users\user\Desktop\LedDriver\LedDriver2/LedDriver2.ino:278
			RampInit();
    12ce:	63 db       	rcall	.-2362   	; 0x996 <RampInit()>
C:\Users\user\Desktop\LedDriver\LedDriver2/LedDriver2.ino:279
			ResetStatus = 0;
    12d0:	10 92 16 01 	sts	0x0116, r1	; 0x800116 <ResetStatus>
C:\Users\user\Desktop\LedDriver\LedDriver2/LedDriver2.ino:281
		}
		if(xFrame == 0)	{
    12d4:	80 91 18 01 	lds	r24, 0x0118	; 0x800118 <xFrame>
    12d8:	81 11       	cpse	r24, r1
    12da:	17 c0       	rjmp	.+46     	; 0x130a <L_5467+0x474>
C:\Users\user\Desktop\LedDriver\LedDriver2/LedDriver2.ino:282
			for (iLed = NUM_LEDS-1; iLed > iFrame; iLed--) { leds[iLed] = CRGB(0,255,0); }
    12dc:	80 91 19 01 	lds	r24, 0x0119	; 0x800119 <iFrame>
    12e0:	e5 ed       	ldi	r30, 0xD5	; 213
    12e2:	f0 e0       	ldi	r31, 0x00	; 0
    12e4:	93 e1       	ldi	r25, 0x13	; 19
    12e6:	2f ef       	ldi	r18, 0xFF	; 255
    12e8:	33 97       	sbiw	r30, 0x03	; 3
    12ea:	89 17       	cp	r24, r25
    12ec:	28 f4       	brcc	.+10     	; 0x12f8 <L_5467+0x462>
    12ee:	14 ae       	std	Z+60, r1	; 0x3c
    12f0:	25 af       	std	Z+61, r18	; 0x3d
    12f2:	16 ae       	std	Z+62, r1	; 0x3e
    12f4:	91 50       	subi	r25, 0x01	; 1
    12f6:	f8 cf       	rjmp	.-16     	; 0x12e8 <L_5467+0x452>
    12f8:	84 31       	cpi	r24, 0x14	; 20
    12fa:	08 f0       	brcs	.+2      	; 0x12fe <L_5467+0x468>
    12fc:	83 e1       	ldi	r24, 0x13	; 19
    12fe:	80 93 d4 00 	sts	0x00D4, r24	; 0x8000d4 <iLed>
C:\Users\user\Desktop\LedDriver\LedDriver2/LedDriver2.ino:283
			xFrame++;
    1302:	81 e0       	ldi	r24, 0x01	; 1
    1304:	80 93 18 01 	sts	0x0118, r24	; 0x800118 <xFrame>
    1308:	44 ce       	rjmp	.-888    	; 0xf92 <L_5467+0xfc>
C:\Users\user\Desktop\LedDriver\LedDriver2/LedDriver2.ino:287
			iFrame = 0;
		}
		//Fade Blue
		else if(xFrame ==1)	{
    130a:	81 30       	cpi	r24, 0x01	; 1
    130c:	81 f5       	brne	.+96     	; 0x136e <L_5467+0x4d8>
C:\Users\user\Desktop\LedDriver\LedDriver2/LedDriver2.ino:288
			for (iLed = NUM_LEDS-1; iLed > iFrame; iLed--) {
    130e:	20 91 19 01 	lds	r18, 0x0119	; 0x800119 <iFrame>
    1312:	e5 ed       	ldi	r30, 0xD5	; 213
    1314:	f0 e0       	ldi	r31, 0x00	; 0
    1316:	83 e1       	ldi	r24, 0x13	; 19
C:\Users\user\Desktop\LedDriver\LedDriver2/LedDriver2.ino:289
				leds[iLed] = CRGB(0,255,0);
    1318:	9f ef       	ldi	r25, 0xFF	; 255
    131a:	33 97       	sbiw	r30, 0x03	; 3
C:\Users\user\Desktop\LedDriver\LedDriver2/LedDriver2.ino:288
			xFrame++;
			iFrame = 0;
		}
		//Fade Blue
		else if(xFrame ==1)	{
			for (iLed = NUM_LEDS-1; iLed > iFrame; iLed--) {
    131c:	28 17       	cp	r18, r24
    131e:	10 f1       	brcs	.+68     	; 0x1364 <L_5467+0x4ce>
    1320:	32 2f       	mov	r19, r18
    1322:	24 31       	cpi	r18, 0x14	; 20
    1324:	08 f0       	brcs	.+2      	; 0x1328 <L_5467+0x492>
    1326:	33 e1       	ldi	r19, 0x13	; 19
C:\Users\user\Desktop\LedDriver\LedDriver2/LedDriver2.ino:292
				leds[iLed] = CRGB(0,255,0);
			}		
			for (;iLed != 255; iLed--) {
				leds[iLed] = CRGB(0, 255, Vect[iFrame - iLed]);
    1328:	82 2f       	mov	r24, r18
    132a:	90 e0       	ldi	r25, 0x00	; 0
    132c:	4f ef       	ldi	r20, 0xFF	; 255
    132e:	fc 01       	movw	r30, r24
    1330:	e3 1b       	sub	r30, r19
    1332:	f1 09       	sbc	r31, r1
    1334:	e0 54       	subi	r30, 0x40	; 64
    1336:	ff 4f       	sbci	r31, 0xFF	; 255
    1338:	50 81       	ld	r21, Z
    133a:	3c 9f       	mul	r19, r28
    133c:	f0 01       	movw	r30, r0
    133e:	11 24       	eor	r1, r1
    1340:	eb 52       	subi	r30, 0x2B	; 43
    1342:	ff 4f       	sbci	r31, 0xFF	; 255
    1344:	10 82       	st	Z, r1
    1346:	41 83       	std	Z+1, r20	; 0x01
    1348:	52 83       	std	Z+2, r21	; 0x02
C:\Users\user\Desktop\LedDriver\LedDriver2/LedDriver2.ino:291
		//Fade Blue
		else if(xFrame ==1)	{
			for (iLed = NUM_LEDS-1; iLed > iFrame; iLed--) {
				leds[iLed] = CRGB(0,255,0);
			}		
			for (;iLed != 255; iLed--) {
    134a:	31 50       	subi	r19, 0x01	; 1
    134c:	80 f7       	brcc	.-32     	; 0x132e <L_5467+0x498>
    134e:	30 93 d4 00 	sts	0x00D4, r19	; 0x8000d4 <iLed>
C:\Users\user\Desktop\LedDriver\LedDriver2/LedDriver2.ino:294
				leds[iLed] = CRGB(0, 255, Vect[iFrame - iLed]);
			}			
			if(iFrame == NUM_LEDS-1)	{iFrame = 0; xFrame++;}
    1352:	23 31       	cpi	r18, 0x13	; 19
    1354:	09 f0       	breq	.+2      	; 0x1358 <L_5467+0x4c2>
    1356:	20 ce       	rjmp	.-960    	; 0xf98 <L_5467+0x102>
    1358:	10 92 19 01 	sts	0x0119, r1	; 0x800119 <iFrame>
    135c:	82 e0       	ldi	r24, 0x02	; 2
C:\Users\user\Desktop\LedDriver\LedDriver2/LedDriver2.ino:415
				leds[iLed] = CRGB(Vect[iLed - iFrame], 255, 0);
			}
			for (;iLed != 255; iLed--) {
				leds[iLed] = CRGB(0, 255, 0);
			}
			if(iFrame == NUM_LEDS-1)	{iFrame = 0; xFrame = 1;}
    135e:	80 93 18 01 	sts	0x0118, r24	; 0x800118 <xFrame>
    1362:	1d ce       	rjmp	.-966    	; 0xf9e <L_5467+0x108>
C:\Users\user\Desktop\LedDriver\LedDriver2/LedDriver2.ino:289
			iFrame = 0;
		}
		//Fade Blue
		else if(xFrame ==1)	{
			for (iLed = NUM_LEDS-1; iLed > iFrame; iLed--) {
				leds[iLed] = CRGB(0,255,0);
    1364:	14 ae       	std	Z+60, r1	; 0x3c
    1366:	95 af       	std	Z+61, r25	; 0x3d
    1368:	16 ae       	std	Z+62, r1	; 0x3e
    136a:	81 50       	subi	r24, 0x01	; 1
    136c:	d6 cf       	rjmp	.-84     	; 0x131a <L_5467+0x484>
C:\Users\user\Desktop\LedDriver\LedDriver2/LedDriver2.ino:298
			}			
			if(iFrame == NUM_LEDS-1)	{iFrame = 0; xFrame++;}
			else						{iFrame++;}		
		}
		//Fill Blue
		else if(xFrame == 2)	{
    136e:	82 30       	cpi	r24, 0x02	; 2
    1370:	69 f5       	brne	.+90     	; 0x13cc <L_5467+0x536>
C:\Users\user\Desktop\LedDriver\LedDriver2/LedDriver2.ino:299
			for (iLed = NUM_LEDS-1; iLed > iFrame; iLed--) {
    1372:	80 91 19 01 	lds	r24, 0x0119	; 0x800119 <iFrame>
    1376:	a8 2f       	mov	r26, r24
    1378:	b0 e0       	ldi	r27, 0x00	; 0
    137a:	a0 54       	subi	r26, 0x40	; 64
    137c:	bf 4f       	sbci	r27, 0xFF	; 255
    137e:	e5 ed       	ldi	r30, 0xD5	; 213
    1380:	f0 e0       	ldi	r31, 0x00	; 0
    1382:	93 e1       	ldi	r25, 0x13	; 19
C:\Users\user\Desktop\LedDriver\LedDriver2/LedDriver2.ino:300
				leds[iLed] = CRGB(0, 255, Vect[NUM_LEDS - 1 - iLed + iFrame]);
    1384:	3f ef       	ldi	r19, 0xFF	; 255
    1386:	33 97       	sbiw	r30, 0x03	; 3
C:\Users\user\Desktop\LedDriver\LedDriver2/LedDriver2.ino:299
			if(iFrame == NUM_LEDS-1)	{iFrame = 0; xFrame++;}
			else						{iFrame++;}		
		}
		//Fill Blue
		else if(xFrame == 2)	{
			for (iLed = NUM_LEDS-1; iLed > iFrame; iLed--) {
    1388:	89 17       	cp	r24, r25
    138a:	d0 f0       	brcs	.+52     	; 0x13c0 <L_5467+0x52a>
    138c:	98 2f       	mov	r25, r24
    138e:	84 31       	cpi	r24, 0x14	; 20
    1390:	08 f0       	brcs	.+2      	; 0x1394 <L_5467+0x4fe>
    1392:	93 e1       	ldi	r25, 0x13	; 19
C:\Users\user\Desktop\LedDriver\LedDriver2/LedDriver2.ino:303
				leds[iLed] = CRGB(0, 255, Vect[NUM_LEDS - 1 - iLed + iFrame]);
			}
			for (;iLed != 255; iLed--) {
				leds[iLed] = CRGB(0, 255, 255);
    1394:	2f ef       	ldi	r18, 0xFF	; 255
    1396:	9c 9f       	mul	r25, r28
    1398:	f0 01       	movw	r30, r0
    139a:	11 24       	eor	r1, r1
    139c:	eb 52       	subi	r30, 0x2B	; 43
    139e:	ff 4f       	sbci	r31, 0xFF	; 255
    13a0:	10 82       	st	Z, r1
    13a2:	21 83       	std	Z+1, r18	; 0x01
    13a4:	22 83       	std	Z+2, r18	; 0x02
C:\Users\user\Desktop\LedDriver\LedDriver2/LedDriver2.ino:302
		//Fill Blue
		else if(xFrame == 2)	{
			for (iLed = NUM_LEDS-1; iLed > iFrame; iLed--) {
				leds[iLed] = CRGB(0, 255, Vect[NUM_LEDS - 1 - iLed + iFrame]);
			}
			for (;iLed != 255; iLed--) {
    13a6:	91 50       	subi	r25, 0x01	; 1
    13a8:	b0 f7       	brcc	.-20     	; 0x1396 <L_5467+0x500>
    13aa:	90 93 d4 00 	sts	0x00D4, r25	; 0x8000d4 <iLed>
C:\Users\user\Desktop\LedDriver\LedDriver2/LedDriver2.ino:305
				leds[iLed] = CRGB(0, 255, 255);
			}
			if(iFrame == NUM_LEDS-1)	{iFrame = 0; xFrame++;}
    13ae:	83 31       	cpi	r24, 0x13	; 19
    13b0:	09 f0       	breq	.+2      	; 0x13b4 <L_5467+0x51e>
    13b2:	82 cf       	rjmp	.-252    	; 0x12b8 <L_5467+0x422>
    13b4:	10 92 19 01 	sts	0x0119, r1	; 0x800119 <iFrame>
    13b8:	b3 e0       	ldi	r27, 0x03	; 3
    13ba:	b0 93 18 01 	sts	0x0118, r27	; 0x800118 <xFrame>
    13be:	ef cd       	rjmp	.-1058   	; 0xf9e <L_5467+0x108>
C:\Users\user\Desktop\LedDriver\LedDriver2/LedDriver2.ino:300
			else						{iFrame++;}		
		}
		//Fill Blue
		else if(xFrame == 2)	{
			for (iLed = NUM_LEDS-1; iLed > iFrame; iLed--) {
				leds[iLed] = CRGB(0, 255, Vect[NUM_LEDS - 1 - iLed + iFrame]);
    13c0:	2d 91       	ld	r18, X+
    13c2:	14 ae       	std	Z+60, r1	; 0x3c
    13c4:	35 af       	std	Z+61, r19	; 0x3d
    13c6:	26 af       	std	Z+62, r18	; 0x3e
    13c8:	91 50       	subi	r25, 0x01	; 1
    13ca:	dd cf       	rjmp	.-70     	; 0x1386 <L_5467+0x4f0>
C:\Users\user\Desktop\LedDriver\LedDriver2/LedDriver2.ino:309
			}
			if(iFrame == NUM_LEDS-1)	{iFrame = 0; xFrame++;}
			else						{iFrame++;}		
		}
		//Fade Green out
		else if(xFrame == 3)	{
    13cc:	83 30       	cpi	r24, 0x03	; 3
    13ce:	79 f5       	brne	.+94     	; 0x142e <L_5467+0x598>
C:\Users\user\Desktop\LedDriver\LedDriver2/LedDriver2.ino:310
			for (iLed = NUM_LEDS-1; iLed > iFrame; iLed--) {
    13d0:	20 91 19 01 	lds	r18, 0x0119	; 0x800119 <iFrame>
    13d4:	e5 ed       	ldi	r30, 0xD5	; 213
    13d6:	f0 e0       	ldi	r31, 0x00	; 0
    13d8:	83 e1       	ldi	r24, 0x13	; 19
C:\Users\user\Desktop\LedDriver\LedDriver2/LedDriver2.ino:311
				leds[iLed] = CRGB(0, 255, 255);
    13da:	9f ef       	ldi	r25, 0xFF	; 255
    13dc:	33 97       	sbiw	r30, 0x03	; 3
C:\Users\user\Desktop\LedDriver\LedDriver2/LedDriver2.ino:310
			if(iFrame == NUM_LEDS-1)	{iFrame = 0; xFrame++;}
			else						{iFrame++;}		
		}
		//Fade Green out
		else if(xFrame == 3)	{
			for (iLed = NUM_LEDS-1; iLed > iFrame; iLed--) {
    13de:	28 17       	cp	r18, r24
    13e0:	08 f1       	brcs	.+66     	; 0x1424 <L_5467+0x58e>
    13e2:	32 2f       	mov	r19, r18
    13e4:	24 31       	cpi	r18, 0x14	; 20
    13e6:	08 f0       	brcs	.+2      	; 0x13ea <L_5467+0x554>
    13e8:	33 e1       	ldi	r19, 0x13	; 19
C:\Users\user\Desktop\LedDriver\LedDriver2/LedDriver2.ino:314
				leds[iLed] = CRGB(0, 255, 255);
			}
			for (;iLed != 255; iLed--) {
				leds[iLed] = CRGB(0, Vect[NUM_LEDS - 1 - iFrame + iLed], 255);
    13ea:	c1 01       	movw	r24, r2
    13ec:	82 1b       	sub	r24, r18
    13ee:	91 09       	sbc	r25, r1
    13f0:	80 54       	subi	r24, 0x40	; 64
    13f2:	9f 4f       	sbci	r25, 0xFF	; 255
    13f4:	4f ef       	ldi	r20, 0xFF	; 255
    13f6:	fc 01       	movw	r30, r24
    13f8:	e3 0f       	add	r30, r19
    13fa:	f1 1d       	adc	r31, r1
    13fc:	50 81       	ld	r21, Z
    13fe:	3c 9f       	mul	r19, r28
    1400:	f0 01       	movw	r30, r0
    1402:	11 24       	eor	r1, r1
    1404:	eb 52       	subi	r30, 0x2B	; 43
    1406:	ff 4f       	sbci	r31, 0xFF	; 255
    1408:	10 82       	st	Z, r1
    140a:	51 83       	std	Z+1, r21	; 0x01
    140c:	42 83       	std	Z+2, r20	; 0x02
C:\Users\user\Desktop\LedDriver\LedDriver2/LedDriver2.ino:313
		//Fade Green out
		else if(xFrame == 3)	{
			for (iLed = NUM_LEDS-1; iLed > iFrame; iLed--) {
				leds[iLed] = CRGB(0, 255, 255);
			}
			for (;iLed != 255; iLed--) {
    140e:	31 50       	subi	r19, 0x01	; 1
    1410:	90 f7       	brcc	.-28     	; 0x13f6 <L_5467+0x560>
    1412:	30 93 d4 00 	sts	0x00D4, r19	; 0x8000d4 <iLed>
C:\Users\user\Desktop\LedDriver\LedDriver2/LedDriver2.ino:316
				leds[iLed] = CRGB(0, Vect[NUM_LEDS - 1 - iFrame + iLed], 255);
			}
			if(iFrame == NUM_LEDS-1)	{iFrame = 0; xFrame++;}
    1416:	23 31       	cpi	r18, 0x13	; 19
    1418:	09 f0       	breq	.+2      	; 0x141c <L_5467+0x586>
    141a:	be cd       	rjmp	.-1156   	; 0xf98 <L_5467+0x102>
    141c:	10 92 19 01 	sts	0x0119, r1	; 0x800119 <iFrame>
    1420:	84 e0       	ldi	r24, 0x04	; 4
    1422:	9d cf       	rjmp	.-198    	; 0x135e <L_5467+0x4c8>
C:\Users\user\Desktop\LedDriver\LedDriver2/LedDriver2.ino:311
			else						{iFrame++;}		
		}
		//Fade Green out
		else if(xFrame == 3)	{
			for (iLed = NUM_LEDS-1; iLed > iFrame; iLed--) {
				leds[iLed] = CRGB(0, 255, 255);
    1424:	14 ae       	std	Z+60, r1	; 0x3c
    1426:	95 af       	std	Z+61, r25	; 0x3d
    1428:	96 af       	std	Z+62, r25	; 0x3e
    142a:	81 50       	subi	r24, 0x01	; 1
    142c:	d7 cf       	rjmp	.-82     	; 0x13dc <L_5467+0x546>
C:\Users\user\Desktop\LedDriver\LedDriver2/LedDriver2.ino:320
			}
			if(iFrame == NUM_LEDS-1)	{iFrame = 0; xFrame++;}
			else						{iFrame++;}		
		}
		//Turn off green
		else if(xFrame == 4)	{
    142e:	84 30       	cpi	r24, 0x04	; 4
    1430:	69 f5       	brne	.+90     	; 0x148c <L_5467+0x5f6>
C:\Users\user\Desktop\LedDriver\LedDriver2/LedDriver2.ino:321
			for (iLed = NUM_LEDS-1; iLed > iFrame; iLed--) {
    1432:	80 91 19 01 	lds	r24, 0x0119	; 0x800119 <iFrame>
    1436:	a4 e1       	ldi	r26, 0x14	; 20
    1438:	b0 e0       	ldi	r27, 0x00	; 0
    143a:	a8 1b       	sub	r26, r24
    143c:	b1 09       	sbc	r27, r1
    143e:	a0 54       	subi	r26, 0x40	; 64
    1440:	bf 4f       	sbci	r27, 0xFF	; 255
    1442:	e5 ed       	ldi	r30, 0xD5	; 213
    1444:	f0 e0       	ldi	r31, 0x00	; 0
    1446:	93 e1       	ldi	r25, 0x13	; 19
C:\Users\user\Desktop\LedDriver\LedDriver2/LedDriver2.ino:322
				leds[iLed] = CRGB(0, Vect[iLed - iFrame], 255);
    1448:	2f ef       	ldi	r18, 0xFF	; 255
    144a:	33 97       	sbiw	r30, 0x03	; 3
C:\Users\user\Desktop\LedDriver\LedDriver2/LedDriver2.ino:321
			if(iFrame == NUM_LEDS-1)	{iFrame = 0; xFrame++;}
			else						{iFrame++;}		
		}
		//Turn off green
		else if(xFrame == 4)	{
			for (iLed = NUM_LEDS-1; iLed > iFrame; iLed--) {
    144c:	89 17       	cp	r24, r25
    144e:	c0 f0       	brcs	.+48     	; 0x1480 <L_5467+0x5ea>
    1450:	98 2f       	mov	r25, r24
    1452:	84 31       	cpi	r24, 0x14	; 20
    1454:	08 f0       	brcs	.+2      	; 0x1458 <L_5467+0x5c2>
    1456:	93 e1       	ldi	r25, 0x13	; 19
C:\Users\user\Desktop\LedDriver\LedDriver2/LedDriver2.ino:325
				leds[iLed] = CRGB(0, Vect[iLed - iFrame], 255);
			}
			for (;iLed != 255; iLed--) {
				leds[iLed] = CRGB(0, 0, 255);
    1458:	2f ef       	ldi	r18, 0xFF	; 255
    145a:	9c 9f       	mul	r25, r28
    145c:	f0 01       	movw	r30, r0
    145e:	11 24       	eor	r1, r1
    1460:	eb 52       	subi	r30, 0x2B	; 43
    1462:	ff 4f       	sbci	r31, 0xFF	; 255
    1464:	10 82       	st	Z, r1
    1466:	11 82       	std	Z+1, r1	; 0x01
    1468:	22 83       	std	Z+2, r18	; 0x02
C:\Users\user\Desktop\LedDriver\LedDriver2/LedDriver2.ino:324
		//Turn off green
		else if(xFrame == 4)	{
			for (iLed = NUM_LEDS-1; iLed > iFrame; iLed--) {
				leds[iLed] = CRGB(0, Vect[iLed - iFrame], 255);
			}
			for (;iLed != 255; iLed--) {
    146a:	91 50       	subi	r25, 0x01	; 1
    146c:	b0 f7       	brcc	.-20     	; 0x145a <L_5467+0x5c4>
    146e:	90 93 d4 00 	sts	0x00D4, r25	; 0x8000d4 <iLed>
C:\Users\user\Desktop\LedDriver\LedDriver2/LedDriver2.ino:327
				leds[iLed] = CRGB(0, 0, 255);
			}
			if(iFrame == NUM_LEDS-1)	{iFrame = 0; xFrame++;}
    1472:	83 31       	cpi	r24, 0x13	; 19
    1474:	09 f0       	breq	.+2      	; 0x1478 <L_5467+0x5e2>
    1476:	20 cf       	rjmp	.-448    	; 0x12b8 <L_5467+0x422>
    1478:	10 92 19 01 	sts	0x0119, r1	; 0x800119 <iFrame>
    147c:	85 e0       	ldi	r24, 0x05	; 5
    147e:	6f cf       	rjmp	.-290    	; 0x135e <L_5467+0x4c8>
C:\Users\user\Desktop\LedDriver\LedDriver2/LedDriver2.ino:322
			else						{iFrame++;}		
		}
		//Turn off green
		else if(xFrame == 4)	{
			for (iLed = NUM_LEDS-1; iLed > iFrame; iLed--) {
				leds[iLed] = CRGB(0, Vect[iLed - iFrame], 255);
    1480:	3e 91       	ld	r19, -X
    1482:	14 ae       	std	Z+60, r1	; 0x3c
    1484:	35 af       	std	Z+61, r19	; 0x3d
    1486:	26 af       	std	Z+62, r18	; 0x3e
    1488:	91 50       	subi	r25, 0x01	; 1
    148a:	df cf       	rjmp	.-66     	; 0x144a <L_5467+0x5b4>
C:\Users\user\Desktop\LedDriver\LedDriver2/LedDriver2.ino:331
			}
			if(iFrame == NUM_LEDS-1)	{iFrame = 0; xFrame++;}
			else						{iFrame++;}		
		}	
		//Fade red
		else if(xFrame == 5)	{
    148c:	85 30       	cpi	r24, 0x05	; 5
    148e:	71 f5       	brne	.+92     	; 0x14ec <L_5467+0x656>
C:\Users\user\Desktop\LedDriver\LedDriver2/LedDriver2.ino:332
			for (iLed = NUM_LEDS-1; iLed > iFrame; iLed--) {
    1490:	20 91 19 01 	lds	r18, 0x0119	; 0x800119 <iFrame>
    1494:	e5 ed       	ldi	r30, 0xD5	; 213
    1496:	f0 e0       	ldi	r31, 0x00	; 0
    1498:	83 e1       	ldi	r24, 0x13	; 19
C:\Users\user\Desktop\LedDriver\LedDriver2/LedDriver2.ino:333
				leds[iLed] = CRGB(0,0,255);
    149a:	9f ef       	ldi	r25, 0xFF	; 255
    149c:	33 97       	sbiw	r30, 0x03	; 3
C:\Users\user\Desktop\LedDriver\LedDriver2/LedDriver2.ino:332
			if(iFrame == NUM_LEDS-1)	{iFrame = 0; xFrame++;}
			else						{iFrame++;}		
		}	
		//Fade red
		else if(xFrame == 5)	{
			for (iLed = NUM_LEDS-1; iLed > iFrame; iLed--) {
    149e:	28 17       	cp	r18, r24
    14a0:	00 f1       	brcs	.+64     	; 0x14e2 <L_5467+0x64c>
    14a2:	32 2f       	mov	r19, r18
    14a4:	24 31       	cpi	r18, 0x14	; 20
    14a6:	08 f0       	brcs	.+2      	; 0x14aa <L_5467+0x614>
    14a8:	33 e1       	ldi	r19, 0x13	; 19
C:\Users\user\Desktop\LedDriver\LedDriver2/LedDriver2.ino:336
				leds[iLed] = CRGB(0,0,255);
			}		
			for (;iLed != 255; iLed--) {
				leds[iLed] = CRGB(Vect[iFrame - iLed], 0, 255);
    14aa:	82 2f       	mov	r24, r18
    14ac:	90 e0       	ldi	r25, 0x00	; 0
    14ae:	4f ef       	ldi	r20, 0xFF	; 255
    14b0:	3c 9f       	mul	r19, r28
    14b2:	f0 01       	movw	r30, r0
    14b4:	11 24       	eor	r1, r1
    14b6:	eb 52       	subi	r30, 0x2B	; 43
    14b8:	ff 4f       	sbci	r31, 0xFF	; 255
    14ba:	dc 01       	movw	r26, r24
    14bc:	a3 1b       	sub	r26, r19
    14be:	b1 09       	sbc	r27, r1
    14c0:	a0 54       	subi	r26, 0x40	; 64
    14c2:	bf 4f       	sbci	r27, 0xFF	; 255
    14c4:	5c 91       	ld	r21, X
    14c6:	50 83       	st	Z, r21
    14c8:	11 82       	std	Z+1, r1	; 0x01
    14ca:	42 83       	std	Z+2, r20	; 0x02
C:\Users\user\Desktop\LedDriver\LedDriver2/LedDriver2.ino:335
		//Fade red
		else if(xFrame == 5)	{
			for (iLed = NUM_LEDS-1; iLed > iFrame; iLed--) {
				leds[iLed] = CRGB(0,0,255);
			}		
			for (;iLed != 255; iLed--) {
    14cc:	31 50       	subi	r19, 0x01	; 1
    14ce:	80 f7       	brcc	.-32     	; 0x14b0 <L_5467+0x61a>
    14d0:	30 93 d4 00 	sts	0x00D4, r19	; 0x8000d4 <iLed>
C:\Users\user\Desktop\LedDriver\LedDriver2/LedDriver2.ino:338
				leds[iLed] = CRGB(Vect[iFrame - iLed], 0, 255);
			}			
			if(iFrame == NUM_LEDS-1)	{iFrame = 0; xFrame++;}
    14d4:	23 31       	cpi	r18, 0x13	; 19
    14d6:	09 f0       	breq	.+2      	; 0x14da <L_5467+0x644>
    14d8:	5f cd       	rjmp	.-1346   	; 0xf98 <L_5467+0x102>
    14da:	10 92 19 01 	sts	0x0119, r1	; 0x800119 <iFrame>
    14de:	86 e0       	ldi	r24, 0x06	; 6
    14e0:	3e cf       	rjmp	.-388    	; 0x135e <L_5467+0x4c8>
C:\Users\user\Desktop\LedDriver\LedDriver2/LedDriver2.ino:333
			else						{iFrame++;}		
		}	
		//Fade red
		else if(xFrame == 5)	{
			for (iLed = NUM_LEDS-1; iLed > iFrame; iLed--) {
				leds[iLed] = CRGB(0,0,255);
    14e2:	14 ae       	std	Z+60, r1	; 0x3c
    14e4:	15 ae       	std	Z+61, r1	; 0x3d
    14e6:	96 af       	std	Z+62, r25	; 0x3e
    14e8:	81 50       	subi	r24, 0x01	; 1
    14ea:	d8 cf       	rjmp	.-80     	; 0x149c <L_5467+0x606>
C:\Users\user\Desktop\LedDriver\LedDriver2/LedDriver2.ino:342
			}			
			if(iFrame == NUM_LEDS-1)	{iFrame = 0; xFrame++;}
			else						{iFrame++;}		
		}
		//Fill red
		else if(xFrame == 6)	{
    14ec:	86 30       	cpi	r24, 0x06	; 6
    14ee:	59 f5       	brne	.+86     	; 0x1546 <L_5467+0x6b0>
C:\Users\user\Desktop\LedDriver\LedDriver2/LedDriver2.ino:343
			for (iLed = NUM_LEDS-1; iLed > iFrame; iLed--) {
    14f0:	80 91 19 01 	lds	r24, 0x0119	; 0x800119 <iFrame>
    14f4:	a8 2f       	mov	r26, r24
    14f6:	b0 e0       	ldi	r27, 0x00	; 0
    14f8:	a0 54       	subi	r26, 0x40	; 64
    14fa:	bf 4f       	sbci	r27, 0xFF	; 255
    14fc:	e5 ed       	ldi	r30, 0xD5	; 213
    14fe:	f0 e0       	ldi	r31, 0x00	; 0
    1500:	93 e1       	ldi	r25, 0x13	; 19
C:\Users\user\Desktop\LedDriver\LedDriver2/LedDriver2.ino:344
				leds[iLed] = CRGB(Vect[NUM_LEDS - 1 - iLed + iFrame], 0, 255);
    1502:	2f ef       	ldi	r18, 0xFF	; 255
    1504:	33 97       	sbiw	r30, 0x03	; 3
C:\Users\user\Desktop\LedDriver\LedDriver2/LedDriver2.ino:343
			if(iFrame == NUM_LEDS-1)	{iFrame = 0; xFrame++;}
			else						{iFrame++;}		
		}
		//Fill red
		else if(xFrame == 6)	{
			for (iLed = NUM_LEDS-1; iLed > iFrame; iLed--) {
    1506:	89 17       	cp	r24, r25
    1508:	c0 f0       	brcs	.+48     	; 0x153a <L_5467+0x6a4>
    150a:	98 2f       	mov	r25, r24
    150c:	84 31       	cpi	r24, 0x14	; 20
    150e:	08 f0       	brcs	.+2      	; 0x1512 <L_5467+0x67c>
    1510:	93 e1       	ldi	r25, 0x13	; 19
C:\Users\user\Desktop\LedDriver\LedDriver2/LedDriver2.ino:347
				leds[iLed] = CRGB(Vect[NUM_LEDS - 1 - iLed + iFrame], 0, 255);
			}
			for (;iLed != 255; iLed--) {
				leds[iLed] = CRGB(255, 0, 255);
    1512:	2f ef       	ldi	r18, 0xFF	; 255
    1514:	9c 9f       	mul	r25, r28
    1516:	f0 01       	movw	r30, r0
    1518:	11 24       	eor	r1, r1
    151a:	eb 52       	subi	r30, 0x2B	; 43
    151c:	ff 4f       	sbci	r31, 0xFF	; 255
    151e:	20 83       	st	Z, r18
    1520:	11 82       	std	Z+1, r1	; 0x01
    1522:	22 83       	std	Z+2, r18	; 0x02
C:\Users\user\Desktop\LedDriver\LedDriver2/LedDriver2.ino:346
		//Fill red
		else if(xFrame == 6)	{
			for (iLed = NUM_LEDS-1; iLed > iFrame; iLed--) {
				leds[iLed] = CRGB(Vect[NUM_LEDS - 1 - iLed + iFrame], 0, 255);
			}
			for (;iLed != 255; iLed--) {
    1524:	91 50       	subi	r25, 0x01	; 1
    1526:	b0 f7       	brcc	.-20     	; 0x1514 <L_5467+0x67e>
    1528:	90 93 d4 00 	sts	0x00D4, r25	; 0x8000d4 <iLed>
C:\Users\user\Desktop\LedDriver\LedDriver2/LedDriver2.ino:349
				leds[iLed] = CRGB(255, 0, 255);
			}
			if(iFrame == NUM_LEDS-1)	{iFrame = 0; xFrame++;}
    152c:	83 31       	cpi	r24, 0x13	; 19
    152e:	09 f0       	breq	.+2      	; 0x1532 <L_5467+0x69c>
    1530:	c3 ce       	rjmp	.-634    	; 0x12b8 <L_5467+0x422>
    1532:	10 92 19 01 	sts	0x0119, r1	; 0x800119 <iFrame>
    1536:	87 e0       	ldi	r24, 0x07	; 7
    1538:	12 cf       	rjmp	.-476    	; 0x135e <L_5467+0x4c8>
C:\Users\user\Desktop\LedDriver\LedDriver2/LedDriver2.ino:344
			else						{iFrame++;}		
		}
		//Fill red
		else if(xFrame == 6)	{
			for (iLed = NUM_LEDS-1; iLed > iFrame; iLed--) {
				leds[iLed] = CRGB(Vect[NUM_LEDS - 1 - iLed + iFrame], 0, 255);
    153a:	3d 91       	ld	r19, X+
    153c:	34 af       	std	Z+60, r19	; 0x3c
    153e:	15 ae       	std	Z+61, r1	; 0x3d
    1540:	26 af       	std	Z+62, r18	; 0x3e
    1542:	91 50       	subi	r25, 0x01	; 1
    1544:	df cf       	rjmp	.-66     	; 0x1504 <L_5467+0x66e>
C:\Users\user\Desktop\LedDriver\LedDriver2/LedDriver2.ino:353
			}
			if(iFrame == NUM_LEDS-1)	{iFrame = 0; xFrame++;}
			else						{iFrame++;}		
		}
		//Fade blue out		
		else if(xFrame == 7)	{
    1546:	87 30       	cpi	r24, 0x07	; 7
    1548:	79 f5       	brne	.+94     	; 0x15a8 <L_5467+0x712>
C:\Users\user\Desktop\LedDriver\LedDriver2/LedDriver2.ino:354
			for (iLed = NUM_LEDS-1; iLed > iFrame; iLed--) {
    154a:	20 91 19 01 	lds	r18, 0x0119	; 0x800119 <iFrame>
    154e:	e5 ed       	ldi	r30, 0xD5	; 213
    1550:	f0 e0       	ldi	r31, 0x00	; 0
    1552:	83 e1       	ldi	r24, 0x13	; 19
C:\Users\user\Desktop\LedDriver\LedDriver2/LedDriver2.ino:355
				leds[iLed] = CRGB(255, 0, 255);
    1554:	9f ef       	ldi	r25, 0xFF	; 255
    1556:	33 97       	sbiw	r30, 0x03	; 3
C:\Users\user\Desktop\LedDriver\LedDriver2/LedDriver2.ino:354
			if(iFrame == NUM_LEDS-1)	{iFrame = 0; xFrame++;}
			else						{iFrame++;}		
		}
		//Fade blue out		
		else if(xFrame == 7)	{
			for (iLed = NUM_LEDS-1; iLed > iFrame; iLed--) {
    1558:	28 17       	cp	r18, r24
    155a:	08 f1       	brcs	.+66     	; 0x159e <L_5467+0x708>
    155c:	32 2f       	mov	r19, r18
    155e:	24 31       	cpi	r18, 0x14	; 20
    1560:	08 f0       	brcs	.+2      	; 0x1564 <L_5467+0x6ce>
    1562:	33 e1       	ldi	r19, 0x13	; 19
C:\Users\user\Desktop\LedDriver\LedDriver2/LedDriver2.ino:358
				leds[iLed] = CRGB(255, 0, 255);
			}
			for (;iLed != 255; iLed--) {
				leds[iLed] = CRGB(255, 0, Vect[NUM_LEDS - 1 - iFrame + iLed]);
    1564:	c1 01       	movw	r24, r2
    1566:	82 1b       	sub	r24, r18
    1568:	91 09       	sbc	r25, r1
    156a:	80 54       	subi	r24, 0x40	; 64
    156c:	9f 4f       	sbci	r25, 0xFF	; 255
    156e:	4f ef       	ldi	r20, 0xFF	; 255
    1570:	fc 01       	movw	r30, r24
    1572:	e3 0f       	add	r30, r19
    1574:	f1 1d       	adc	r31, r1
    1576:	50 81       	ld	r21, Z
    1578:	3c 9f       	mul	r19, r28
    157a:	f0 01       	movw	r30, r0
    157c:	11 24       	eor	r1, r1
    157e:	eb 52       	subi	r30, 0x2B	; 43
    1580:	ff 4f       	sbci	r31, 0xFF	; 255
    1582:	40 83       	st	Z, r20
    1584:	11 82       	std	Z+1, r1	; 0x01
    1586:	52 83       	std	Z+2, r21	; 0x02
C:\Users\user\Desktop\LedDriver\LedDriver2/LedDriver2.ino:357
		//Fade blue out		
		else if(xFrame == 7)	{
			for (iLed = NUM_LEDS-1; iLed > iFrame; iLed--) {
				leds[iLed] = CRGB(255, 0, 255);
			}
			for (;iLed != 255; iLed--) {
    1588:	31 50       	subi	r19, 0x01	; 1
    158a:	90 f7       	brcc	.-28     	; 0x1570 <L_5467+0x6da>
    158c:	30 93 d4 00 	sts	0x00D4, r19	; 0x8000d4 <iLed>
C:\Users\user\Desktop\LedDriver\LedDriver2/LedDriver2.ino:360
				leds[iLed] = CRGB(255, 0, Vect[NUM_LEDS - 1 - iFrame + iLed]);
			}
			if(iFrame == NUM_LEDS-1)	{iFrame = 0; xFrame++;}
    1590:	23 31       	cpi	r18, 0x13	; 19
    1592:	09 f0       	breq	.+2      	; 0x1596 <L_5467+0x700>
    1594:	01 cd       	rjmp	.-1534   	; 0xf98 <L_5467+0x102>
    1596:	10 92 19 01 	sts	0x0119, r1	; 0x800119 <iFrame>
    159a:	88 e0       	ldi	r24, 0x08	; 8
    159c:	e0 ce       	rjmp	.-576    	; 0x135e <L_5467+0x4c8>
C:\Users\user\Desktop\LedDriver\LedDriver2/LedDriver2.ino:355
			else						{iFrame++;}		
		}
		//Fade blue out		
		else if(xFrame == 7)	{
			for (iLed = NUM_LEDS-1; iLed > iFrame; iLed--) {
				leds[iLed] = CRGB(255, 0, 255);
    159e:	94 af       	std	Z+60, r25	; 0x3c
    15a0:	15 ae       	std	Z+61, r1	; 0x3d
    15a2:	96 af       	std	Z+62, r25	; 0x3e
    15a4:	81 50       	subi	r24, 0x01	; 1
    15a6:	d7 cf       	rjmp	.-82     	; 0x1556 <L_5467+0x6c0>
C:\Users\user\Desktop\LedDriver\LedDriver2/LedDriver2.ino:364
			}
			if(iFrame == NUM_LEDS-1)	{iFrame = 0; xFrame++;}
			else						{iFrame++;}		
		}
		//Turn off blue
		else if(xFrame == 8)	{
    15a8:	88 30       	cpi	r24, 0x08	; 8
    15aa:	91 f5       	brne	.+100    	; 0x1610 <L_5467+0x77a>
C:\Users\user\Desktop\LedDriver\LedDriver2/LedDriver2.ino:365
			for (iLed = NUM_LEDS-1; iLed > iFrame; iLed--) {
    15ac:	80 91 19 01 	lds	r24, 0x0119	; 0x800119 <iFrame>
    15b0:	a4 e1       	ldi	r26, 0x14	; 20
    15b2:	b0 e0       	ldi	r27, 0x00	; 0
    15b4:	a8 1b       	sub	r26, r24
    15b6:	b1 09       	sbc	r27, r1
    15b8:	a0 54       	subi	r26, 0x40	; 64
    15ba:	bf 4f       	sbci	r27, 0xFF	; 255
    15bc:	e5 ed       	ldi	r30, 0xD5	; 213
    15be:	f0 e0       	ldi	r31, 0x00	; 0
    15c0:	93 e1       	ldi	r25, 0x13	; 19
C:\Users\user\Desktop\LedDriver\LedDriver2/LedDriver2.ino:366
				leds[iLed] = CRGB(255, 0, Vect[iLed - iFrame]);
    15c2:	3f ef       	ldi	r19, 0xFF	; 255
    15c4:	33 97       	sbiw	r30, 0x03	; 3
C:\Users\user\Desktop\LedDriver\LedDriver2/LedDriver2.ino:365
			if(iFrame == NUM_LEDS-1)	{iFrame = 0; xFrame++;}
			else						{iFrame++;}		
		}
		//Turn off blue
		else if(xFrame == 8)	{
			for (iLed = NUM_LEDS-1; iLed > iFrame; iLed--) {
    15c6:	89 17       	cp	r24, r25
    15c8:	98 f0       	brcs	.+38     	; 0x15f0 <L_5467+0x75a>
    15ca:	e8 2f       	mov	r30, r24
    15cc:	84 31       	cpi	r24, 0x14	; 20
    15ce:	08 f0       	brcs	.+2      	; 0x15d2 <L_5467+0x73c>
    15d0:	e3 e1       	ldi	r30, 0x13	; 19
C:\Users\user\Desktop\LedDriver\LedDriver2/LedDriver2.ino:369
				leds[iLed] = CRGB(255, 0, Vect[iLed - iFrame]);
			}
			for (;iLed != 255; iLed--) {
				leds[iLed] = CRGB(255, 0, 0);
    15d2:	2f ef       	ldi	r18, 0xFF	; 255
    15d4:	9f ef       	ldi	r25, 0xFF	; 255
    15d6:	9e 0f       	add	r25, r30
C:\Users\user\Desktop\LedDriver\LedDriver2/LedDriver2.ino:368
		//Turn off blue
		else if(xFrame == 8)	{
			for (iLed = NUM_LEDS-1; iLed > iFrame; iLed--) {
				leds[iLed] = CRGB(255, 0, Vect[iLed - iFrame]);
			}
			for (;iLed != 255; iLed--) {
    15d8:	9e 3f       	cpi	r25, 0xFE	; 254
    15da:	81 f0       	breq	.+32     	; 0x15fc <L_5467+0x766>
C:\Users\user\Desktop\LedDriver\LedDriver2/LedDriver2.ino:369
				leds[iLed] = CRGB(255, 0, 0);
    15dc:	ec 9f       	mul	r30, r28
    15de:	f0 01       	movw	r30, r0
    15e0:	11 24       	eor	r1, r1
    15e2:	eb 52       	subi	r30, 0x2B	; 43
    15e4:	ff 4f       	sbci	r31, 0xFF	; 255
    15e6:	20 83       	st	Z, r18
    15e8:	11 82       	std	Z+1, r1	; 0x01
    15ea:	12 82       	std	Z+2, r1	; 0x02
    15ec:	e9 2f       	mov	r30, r25
    15ee:	f2 cf       	rjmp	.-28     	; 0x15d4 <L_5467+0x73e>
C:\Users\user\Desktop\LedDriver\LedDriver2/LedDriver2.ino:366
			else						{iFrame++;}		
		}
		//Turn off blue
		else if(xFrame == 8)	{
			for (iLed = NUM_LEDS-1; iLed > iFrame; iLed--) {
				leds[iLed] = CRGB(255, 0, Vect[iLed - iFrame]);
    15f0:	2e 91       	ld	r18, -X
    15f2:	34 af       	std	Z+60, r19	; 0x3c
    15f4:	15 ae       	std	Z+61, r1	; 0x3d
    15f6:	26 af       	std	Z+62, r18	; 0x3e
    15f8:	91 50       	subi	r25, 0x01	; 1
    15fa:	e4 cf       	rjmp	.-56     	; 0x15c4 <L_5467+0x72e>
    15fc:	9f ef       	ldi	r25, 0xFF	; 255
    15fe:	90 93 d4 00 	sts	0x00D4, r25	; 0x8000d4 <iLed>
C:\Users\user\Desktop\LedDriver\LedDriver2/LedDriver2.ino:371
			}
			for (;iLed != 255; iLed--) {
				leds[iLed] = CRGB(255, 0, 0);
			}
			if(iFrame == NUM_LEDS-1)	{iFrame = 0; xFrame++;}
    1602:	83 31       	cpi	r24, 0x13	; 19
    1604:	09 f0       	breq	.+2      	; 0x1608 <L_5467+0x772>
    1606:	58 ce       	rjmp	.-848    	; 0x12b8 <L_5467+0x422>
    1608:	10 92 19 01 	sts	0x0119, r1	; 0x800119 <iFrame>
    160c:	89 e0       	ldi	r24, 0x09	; 9
    160e:	a7 ce       	rjmp	.-690    	; 0x135e <L_5467+0x4c8>
C:\Users\user\Desktop\LedDriver\LedDriver2/LedDriver2.ino:375
			else						{iFrame++;}		
		}		
		//Fade in Green
		else if(xFrame == 9)	{
    1610:	89 30       	cpi	r24, 0x09	; 9
    1612:	71 f5       	brne	.+92     	; 0x1670 <L_5467+0x7da>
C:\Users\user\Desktop\LedDriver\LedDriver2/LedDriver2.ino:376
			for (iLed = NUM_LEDS-1; iLed > iFrame; iLed--) {
    1614:	20 91 19 01 	lds	r18, 0x0119	; 0x800119 <iFrame>
    1618:	e5 ed       	ldi	r30, 0xD5	; 213
    161a:	f0 e0       	ldi	r31, 0x00	; 0
    161c:	83 e1       	ldi	r24, 0x13	; 19
C:\Users\user\Desktop\LedDriver\LedDriver2/LedDriver2.ino:377
				leds[iLed] = CRGB(255,0,0);
    161e:	9f ef       	ldi	r25, 0xFF	; 255
    1620:	33 97       	sbiw	r30, 0x03	; 3
C:\Users\user\Desktop\LedDriver\LedDriver2/LedDriver2.ino:376
			if(iFrame == NUM_LEDS-1)	{iFrame = 0; xFrame++;}
			else						{iFrame++;}		
		}		
		//Fade in Green
		else if(xFrame == 9)	{
			for (iLed = NUM_LEDS-1; iLed > iFrame; iLed--) {
    1622:	28 17       	cp	r18, r24
    1624:	00 f1       	brcs	.+64     	; 0x1666 <L_5467+0x7d0>
    1626:	32 2f       	mov	r19, r18
    1628:	24 31       	cpi	r18, 0x14	; 20
    162a:	08 f0       	brcs	.+2      	; 0x162e <L_5467+0x798>
    162c:	33 e1       	ldi	r19, 0x13	; 19
C:\Users\user\Desktop\LedDriver\LedDriver2/LedDriver2.ino:380
				leds[iLed] = CRGB(255,0,0);
			}		
			for (;iLed != 255; iLed--) {
				leds[iLed] = CRGB(255,Vect[iFrame - iLed], 0);
    162e:	82 2f       	mov	r24, r18
    1630:	90 e0       	ldi	r25, 0x00	; 0
    1632:	4f ef       	ldi	r20, 0xFF	; 255
    1634:	fc 01       	movw	r30, r24
    1636:	e3 1b       	sub	r30, r19
    1638:	f1 09       	sbc	r31, r1
    163a:	e0 54       	subi	r30, 0x40	; 64
    163c:	ff 4f       	sbci	r31, 0xFF	; 255
    163e:	50 81       	ld	r21, Z
    1640:	3c 9f       	mul	r19, r28
    1642:	f0 01       	movw	r30, r0
    1644:	11 24       	eor	r1, r1
    1646:	eb 52       	subi	r30, 0x2B	; 43
    1648:	ff 4f       	sbci	r31, 0xFF	; 255
    164a:	40 83       	st	Z, r20
    164c:	51 83       	std	Z+1, r21	; 0x01
    164e:	12 82       	std	Z+2, r1	; 0x02
C:\Users\user\Desktop\LedDriver\LedDriver2/LedDriver2.ino:379
		//Fade in Green
		else if(xFrame == 9)	{
			for (iLed = NUM_LEDS-1; iLed > iFrame; iLed--) {
				leds[iLed] = CRGB(255,0,0);
			}		
			for (;iLed != 255; iLed--) {
    1650:	31 50       	subi	r19, 0x01	; 1
    1652:	80 f7       	brcc	.-32     	; 0x1634 <L_5467+0x79e>
    1654:	30 93 d4 00 	sts	0x00D4, r19	; 0x8000d4 <iLed>
C:\Users\user\Desktop\LedDriver\LedDriver2/LedDriver2.ino:382
				leds[iLed] = CRGB(255,Vect[iFrame - iLed], 0);
			}			
			if(iFrame == NUM_LEDS-1)	{iFrame = 0; xFrame++;}
    1658:	23 31       	cpi	r18, 0x13	; 19
    165a:	09 f0       	breq	.+2      	; 0x165e <L_5467+0x7c8>
    165c:	9d cc       	rjmp	.-1734   	; 0xf98 <L_5467+0x102>
    165e:	10 92 19 01 	sts	0x0119, r1	; 0x800119 <iFrame>
    1662:	8a e0       	ldi	r24, 0x0A	; 10
    1664:	7c ce       	rjmp	.-776    	; 0x135e <L_5467+0x4c8>
C:\Users\user\Desktop\LedDriver\LedDriver2/LedDriver2.ino:377
			else						{iFrame++;}		
		}		
		//Fade in Green
		else if(xFrame == 9)	{
			for (iLed = NUM_LEDS-1; iLed > iFrame; iLed--) {
				leds[iLed] = CRGB(255,0,0);
    1666:	94 af       	std	Z+60, r25	; 0x3c
    1668:	15 ae       	std	Z+61, r1	; 0x3d
    166a:	16 ae       	std	Z+62, r1	; 0x3e
    166c:	81 50       	subi	r24, 0x01	; 1
    166e:	d8 cf       	rjmp	.-80     	; 0x1620 <L_5467+0x78a>
C:\Users\user\Desktop\LedDriver\LedDriver2/LedDriver2.ino:386
			}			
			if(iFrame == NUM_LEDS-1)	{iFrame = 0; xFrame++;}
			else						{iFrame++;}			
		}		
		//Fill green
		else if(xFrame == 10)	{
    1670:	8a 30       	cpi	r24, 0x0A	; 10
    1672:	59 f5       	brne	.+86     	; 0x16ca <L_5467+0x834>
C:\Users\user\Desktop\LedDriver\LedDriver2/LedDriver2.ino:387
			for (iLed = NUM_LEDS-1; iLed > iFrame; iLed--) {
    1674:	80 91 19 01 	lds	r24, 0x0119	; 0x800119 <iFrame>
    1678:	a8 2f       	mov	r26, r24
    167a:	b0 e0       	ldi	r27, 0x00	; 0
    167c:	a0 54       	subi	r26, 0x40	; 64
    167e:	bf 4f       	sbci	r27, 0xFF	; 255
    1680:	e5 ed       	ldi	r30, 0xD5	; 213
    1682:	f0 e0       	ldi	r31, 0x00	; 0
    1684:	93 e1       	ldi	r25, 0x13	; 19
C:\Users\user\Desktop\LedDriver\LedDriver2/LedDriver2.ino:388
				leds[iLed] = CRGB(255,Vect[NUM_LEDS - 1 - iLed + iFrame], 0);
    1686:	3f ef       	ldi	r19, 0xFF	; 255
    1688:	33 97       	sbiw	r30, 0x03	; 3
C:\Users\user\Desktop\LedDriver\LedDriver2/LedDriver2.ino:387
			if(iFrame == NUM_LEDS-1)	{iFrame = 0; xFrame++;}
			else						{iFrame++;}			
		}		
		//Fill green
		else if(xFrame == 10)	{
			for (iLed = NUM_LEDS-1; iLed > iFrame; iLed--) {
    168a:	89 17       	cp	r24, r25
    168c:	c0 f0       	brcs	.+48     	; 0x16be <L_5467+0x828>
    168e:	98 2f       	mov	r25, r24
    1690:	84 31       	cpi	r24, 0x14	; 20
    1692:	08 f0       	brcs	.+2      	; 0x1696 <L_5467+0x800>
    1694:	93 e1       	ldi	r25, 0x13	; 19
C:\Users\user\Desktop\LedDriver\LedDriver2/LedDriver2.ino:391
				leds[iLed] = CRGB(255,Vect[NUM_LEDS - 1 - iLed + iFrame], 0);
			}
			for (;iLed != 255; iLed--) {
				leds[iLed] = CRGB(255, 255, 0);
    1696:	2f ef       	ldi	r18, 0xFF	; 255
    1698:	9c 9f       	mul	r25, r28
    169a:	f0 01       	movw	r30, r0
    169c:	11 24       	eor	r1, r1
    169e:	eb 52       	subi	r30, 0x2B	; 43
    16a0:	ff 4f       	sbci	r31, 0xFF	; 255
    16a2:	20 83       	st	Z, r18
    16a4:	21 83       	std	Z+1, r18	; 0x01
    16a6:	12 82       	std	Z+2, r1	; 0x02
C:\Users\user\Desktop\LedDriver\LedDriver2/LedDriver2.ino:390
		//Fill green
		else if(xFrame == 10)	{
			for (iLed = NUM_LEDS-1; iLed > iFrame; iLed--) {
				leds[iLed] = CRGB(255,Vect[NUM_LEDS - 1 - iLed + iFrame], 0);
			}
			for (;iLed != 255; iLed--) {
    16a8:	91 50       	subi	r25, 0x01	; 1
    16aa:	b0 f7       	brcc	.-20     	; 0x1698 <L_5467+0x802>
    16ac:	90 93 d4 00 	sts	0x00D4, r25	; 0x8000d4 <iLed>
C:\Users\user\Desktop\LedDriver\LedDriver2/LedDriver2.ino:393
				leds[iLed] = CRGB(255, 255, 0);
			}
			if(iFrame == NUM_LEDS-1)	{iFrame = 0; xFrame++;}
    16b0:	83 31       	cpi	r24, 0x13	; 19
    16b2:	09 f0       	breq	.+2      	; 0x16b6 <L_5467+0x820>
    16b4:	01 ce       	rjmp	.-1022   	; 0x12b8 <L_5467+0x422>
    16b6:	10 92 19 01 	sts	0x0119, r1	; 0x800119 <iFrame>
    16ba:	8b e0       	ldi	r24, 0x0B	; 11
    16bc:	50 ce       	rjmp	.-864    	; 0x135e <L_5467+0x4c8>
C:\Users\user\Desktop\LedDriver\LedDriver2/LedDriver2.ino:388
			else						{iFrame++;}			
		}		
		//Fill green
		else if(xFrame == 10)	{
			for (iLed = NUM_LEDS-1; iLed > iFrame; iLed--) {
				leds[iLed] = CRGB(255,Vect[NUM_LEDS - 1 - iLed + iFrame], 0);
    16be:	2d 91       	ld	r18, X+
    16c0:	34 af       	std	Z+60, r19	; 0x3c
    16c2:	25 af       	std	Z+61, r18	; 0x3d
    16c4:	16 ae       	std	Z+62, r1	; 0x3e
    16c6:	91 50       	subi	r25, 0x01	; 1
    16c8:	df cf       	rjmp	.-66     	; 0x1688 <L_5467+0x7f2>
C:\Users\user\Desktop\LedDriver\LedDriver2/LedDriver2.ino:397
			}
			if(iFrame == NUM_LEDS-1)	{iFrame = 0; xFrame++;}
			else						{iFrame++;}		
		}
		//Fade red out		
		else if(xFrame == 11)	{
    16ca:	8b 30       	cpi	r24, 0x0B	; 11
    16cc:	b9 f5       	brne	.+110    	; 0x173c <L_5467+0x8a6>
C:\Users\user\Desktop\LedDriver\LedDriver2/LedDriver2.ino:398
			for (iLed = NUM_LEDS-1; iLed > iFrame; iLed--) {
    16ce:	20 91 19 01 	lds	r18, 0x0119	; 0x800119 <iFrame>
    16d2:	e5 ed       	ldi	r30, 0xD5	; 213
    16d4:	f0 e0       	ldi	r31, 0x00	; 0
    16d6:	83 e1       	ldi	r24, 0x13	; 19
C:\Users\user\Desktop\LedDriver\LedDriver2/LedDriver2.ino:399
				leds[iLed] = CRGB(255, 255, 0);
    16d8:	9f ef       	ldi	r25, 0xFF	; 255
    16da:	33 97       	sbiw	r30, 0x03	; 3
C:\Users\user\Desktop\LedDriver\LedDriver2/LedDriver2.ino:398
			if(iFrame == NUM_LEDS-1)	{iFrame = 0; xFrame++;}
			else						{iFrame++;}		
		}
		//Fade red out		
		else if(xFrame == 11)	{
			for (iLed = NUM_LEDS-1; iLed > iFrame; iLed--) {
    16dc:	28 17       	cp	r18, r24
    16de:	f8 f0       	brcs	.+62     	; 0x171e <L_5467+0x888>
    16e0:	e2 2f       	mov	r30, r18
    16e2:	24 31       	cpi	r18, 0x14	; 20
    16e4:	08 f0       	brcs	.+2      	; 0x16e8 <L_5467+0x852>
    16e6:	e3 e1       	ldi	r30, 0x13	; 19
C:\Users\user\Desktop\LedDriver\LedDriver2/LedDriver2.ino:402
				leds[iLed] = CRGB(255, 255, 0);
			}
			for (;iLed != 255; iLed--) {
				leds[iLed] = CRGB(Vect[NUM_LEDS - 1 - iFrame + iLed], 255, 0);
    16e8:	c1 01       	movw	r24, r2
    16ea:	82 1b       	sub	r24, r18
    16ec:	91 09       	sbc	r25, r1
    16ee:	80 54       	subi	r24, 0x40	; 64
    16f0:	9f 4f       	sbci	r25, 0xFF	; 255
    16f2:	4f ef       	ldi	r20, 0xFF	; 255
    16f4:	3f ef       	ldi	r19, 0xFF	; 255
    16f6:	3e 0f       	add	r19, r30
C:\Users\user\Desktop\LedDriver\LedDriver2/LedDriver2.ino:401
		//Fade red out		
		else if(xFrame == 11)	{
			for (iLed = NUM_LEDS-1; iLed > iFrame; iLed--) {
				leds[iLed] = CRGB(255, 255, 0);
			}
			for (;iLed != 255; iLed--) {
    16f8:	3e 3f       	cpi	r19, 0xFE	; 254
    16fa:	b1 f0       	breq	.+44     	; 0x1728 <L_5467+0x892>
C:\Users\user\Desktop\LedDriver\LedDriver2/LedDriver2.ino:402
				leds[iLed] = CRGB(Vect[NUM_LEDS - 1 - iFrame + iLed], 255, 0);
    16fc:	ec 9f       	mul	r30, r28
    16fe:	d0 01       	movw	r26, r0
    1700:	11 24       	eor	r1, r1
    1702:	ab 52       	subi	r26, 0x2B	; 43
    1704:	bf 4f       	sbci	r27, 0xFF	; 255
    1706:	e8 0f       	add	r30, r24
    1708:	f9 2f       	mov	r31, r25
    170a:	f1 1d       	adc	r31, r1
    170c:	50 81       	ld	r21, Z
    170e:	5c 93       	st	X, r21
    1710:	11 96       	adiw	r26, 0x01	; 1
    1712:	4c 93       	st	X, r20
    1714:	11 97       	sbiw	r26, 0x01	; 1
    1716:	12 96       	adiw	r26, 0x02	; 2
    1718:	1c 92       	st	X, r1
    171a:	e3 2f       	mov	r30, r19
    171c:	eb cf       	rjmp	.-42     	; 0x16f4 <L_5467+0x85e>
C:\Users\user\Desktop\LedDriver\LedDriver2/LedDriver2.ino:399
			else						{iFrame++;}		
		}
		//Fade red out		
		else if(xFrame == 11)	{
			for (iLed = NUM_LEDS-1; iLed > iFrame; iLed--) {
				leds[iLed] = CRGB(255, 255, 0);
    171e:	94 af       	std	Z+60, r25	; 0x3c
    1720:	95 af       	std	Z+61, r25	; 0x3d
    1722:	16 ae       	std	Z+62, r1	; 0x3e
    1724:	81 50       	subi	r24, 0x01	; 1
    1726:	d9 cf       	rjmp	.-78     	; 0x16da <L_5467+0x844>
    1728:	8f ef       	ldi	r24, 0xFF	; 255
    172a:	80 93 d4 00 	sts	0x00D4, r24	; 0x8000d4 <iLed>
C:\Users\user\Desktop\LedDriver\LedDriver2/LedDriver2.ino:404
			}
			for (;iLed != 255; iLed--) {
				leds[iLed] = CRGB(Vect[NUM_LEDS - 1 - iFrame + iLed], 255, 0);
			}
			if(iFrame == NUM_LEDS-1)	{iFrame = 0; xFrame++;}
    172e:	23 31       	cpi	r18, 0x13	; 19
    1730:	09 f0       	breq	.+2      	; 0x1734 <L_5467+0x89e>
    1732:	32 cc       	rjmp	.-1948   	; 0xf98 <L_5467+0x102>
    1734:	10 92 19 01 	sts	0x0119, r1	; 0x800119 <iFrame>
    1738:	8c e0       	ldi	r24, 0x0C	; 12
    173a:	11 ce       	rjmp	.-990    	; 0x135e <L_5467+0x4c8>
C:\Users\user\Desktop\LedDriver\LedDriver2/LedDriver2.ino:408
			else						{iFrame++;}		
		}
		//Turn off red
		else if(xFrame == 12)	{
    173c:	8c 30       	cpi	r24, 0x0C	; 12
    173e:	09 f0       	breq	.+2      	; 0x1742 <L_5467+0x8ac>
    1740:	2e cc       	rjmp	.-1956   	; 0xf9e <L_5467+0x108>
C:\Users\user\Desktop\LedDriver\LedDriver2/LedDriver2.ino:409
			for (iLed = NUM_LEDS-1; iLed > iFrame; iLed--) {
    1742:	80 91 19 01 	lds	r24, 0x0119	; 0x800119 <iFrame>
    1746:	a4 e1       	ldi	r26, 0x14	; 20
    1748:	b0 e0       	ldi	r27, 0x00	; 0
    174a:	a8 1b       	sub	r26, r24
    174c:	b1 09       	sbc	r27, r1
    174e:	a0 54       	subi	r26, 0x40	; 64
    1750:	bf 4f       	sbci	r27, 0xFF	; 255
    1752:	e5 ed       	ldi	r30, 0xD5	; 213
    1754:	f0 e0       	ldi	r31, 0x00	; 0
    1756:	93 e1       	ldi	r25, 0x13	; 19
C:\Users\user\Desktop\LedDriver\LedDriver2/LedDriver2.ino:410
				leds[iLed] = CRGB(Vect[iLed - iFrame], 255, 0);
    1758:	2f ef       	ldi	r18, 0xFF	; 255
    175a:	33 97       	sbiw	r30, 0x03	; 3
C:\Users\user\Desktop\LedDriver\LedDriver2/LedDriver2.ino:409
			if(iFrame == NUM_LEDS-1)	{iFrame = 0; xFrame++;}
			else						{iFrame++;}		
		}
		//Turn off red
		else if(xFrame == 12)	{
			for (iLed = NUM_LEDS-1; iLed > iFrame; iLed--) {
    175c:	89 17       	cp	r24, r25
    175e:	c0 f0       	brcs	.+48     	; 0x1790 <L_5467+0x8fa>
    1760:	98 2f       	mov	r25, r24
    1762:	84 31       	cpi	r24, 0x14	; 20
    1764:	08 f0       	brcs	.+2      	; 0x1768 <L_5467+0x8d2>
    1766:	93 e1       	ldi	r25, 0x13	; 19
C:\Users\user\Desktop\LedDriver\LedDriver2/LedDriver2.ino:413
				leds[iLed] = CRGB(Vect[iLed - iFrame], 255, 0);
			}
			for (;iLed != 255; iLed--) {
				leds[iLed] = CRGB(0, 255, 0);
    1768:	2f ef       	ldi	r18, 0xFF	; 255
    176a:	9c 9f       	mul	r25, r28
    176c:	f0 01       	movw	r30, r0
    176e:	11 24       	eor	r1, r1
    1770:	eb 52       	subi	r30, 0x2B	; 43
    1772:	ff 4f       	sbci	r31, 0xFF	; 255
    1774:	10 82       	st	Z, r1
    1776:	21 83       	std	Z+1, r18	; 0x01
    1778:	12 82       	std	Z+2, r1	; 0x02
C:\Users\user\Desktop\LedDriver\LedDriver2/LedDriver2.ino:412
		//Turn off red
		else if(xFrame == 12)	{
			for (iLed = NUM_LEDS-1; iLed > iFrame; iLed--) {
				leds[iLed] = CRGB(Vect[iLed - iFrame], 255, 0);
			}
			for (;iLed != 255; iLed--) {
    177a:	91 50       	subi	r25, 0x01	; 1
    177c:	b0 f7       	brcc	.-20     	; 0x176a <L_5467+0x8d4>
    177e:	90 93 d4 00 	sts	0x00D4, r25	; 0x8000d4 <iLed>
C:\Users\user\Desktop\LedDriver\LedDriver2/LedDriver2.ino:415
				leds[iLed] = CRGB(0, 255, 0);
			}
			if(iFrame == NUM_LEDS-1)	{iFrame = 0; xFrame = 1;}
    1782:	83 31       	cpi	r24, 0x13	; 19
    1784:	09 f0       	breq	.+2      	; 0x1788 <L_5467+0x8f2>
    1786:	98 cd       	rjmp	.-1232   	; 0x12b8 <L_5467+0x422>
    1788:	10 92 19 01 	sts	0x0119, r1	; 0x800119 <iFrame>
    178c:	81 e0       	ldi	r24, 0x01	; 1
    178e:	e7 cd       	rjmp	.-1074   	; 0x135e <L_5467+0x4c8>
C:\Users\user\Desktop\LedDriver\LedDriver2/LedDriver2.ino:410
			else						{iFrame++;}		
		}
		//Turn off red
		else if(xFrame == 12)	{
			for (iLed = NUM_LEDS-1; iLed > iFrame; iLed--) {
				leds[iLed] = CRGB(Vect[iLed - iFrame], 255, 0);
    1790:	3e 91       	ld	r19, -X
    1792:	34 af       	std	Z+60, r19	; 0x3c
    1794:	25 af       	std	Z+61, r18	; 0x3d
    1796:	16 ae       	std	Z+62, r1	; 0x3e
    1798:	91 50       	subi	r25, 0x01	; 1
    179a:	df cf       	rjmp	.-66     	; 0x175a <L_5467+0x8c4>
C:\Users\user\Desktop\LedDriver\LedDriver2/LedDriver2.ino:424
		FastLED.show();
		FrameDelay = 15;
  	}

  	//////////////////// STATUS 17 ///////////////////////
  	else if(Status == 17)  {
    179c:	81 31       	cpi	r24, 0x11	; 17
    179e:	71 f5       	brne	.+92     	; 0x17fc <L_5467+0x966>
    17a0:	e0 ec       	ldi	r30, 0xC0	; 192
    17a2:	f0 e0       	ldi	r31, 0x00	; 0
C:\Users\user\Desktop\LedDriver\LedDriver2/LedDriver2.ino:425
		for (iLed=0; 			iLed<NUM_LEDS; 		iLed++)	{ Vect[iLed] = 0; }
    17a4:	85 e1       	ldi	r24, 0x15	; 21
    17a6:	81 50       	subi	r24, 0x01	; 1
    17a8:	11 f0       	breq	.+4      	; 0x17ae <L_5467+0x918>
    17aa:	11 92       	st	Z+, r1
    17ac:	fc cf       	rjmp	.-8      	; 0x17a6 <L_5467+0x910>
C:\Users\user\Desktop\LedDriver\LedDriver2/LedDriver2.ino:426
		for (iLed=0; 			iLed<NUM_LEDS/4; 	iLed++) { Vect[iLed] = 255; }
    17ae:	8f ef       	ldi	r24, 0xFF	; 255
    17b0:	80 93 c0 00 	sts	0x00C0, r24	; 0x8000c0 <Vect>
    17b4:	80 93 c1 00 	sts	0x00C1, r24	; 0x8000c1 <Vect+0x1>
    17b8:	80 93 c2 00 	sts	0x00C2, r24	; 0x8000c2 <Vect+0x2>
    17bc:	80 93 c3 00 	sts	0x00C3, r24	; 0x8000c3 <Vect+0x3>
    17c0:	80 93 c4 00 	sts	0x00C4, r24	; 0x8000c4 <Vect+0x4>
C:\Users\user\Desktop\LedDriver\LedDriver2/LedDriver2.ino:427
		for (iLed=NUM_LEDS/2; 	iLed<NUM_LEDS*3/4;	iLed++) { Vect[iLed] = 255; }
    17c4:	80 93 ca 00 	sts	0x00CA, r24	; 0x8000ca <Vect+0xa>
    17c8:	80 93 cb 00 	sts	0x00CB, r24	; 0x8000cb <Vect+0xb>
    17cc:	80 93 cc 00 	sts	0x00CC, r24	; 0x8000cc <Vect+0xc>
    17d0:	80 93 cd 00 	sts	0x00CD, r24	; 0x8000cd <Vect+0xd>
    17d4:	80 93 ce 00 	sts	0x00CE, r24	; 0x8000ce <Vect+0xe>
    17d8:	8f e0       	ldi	r24, 0x0F	; 15
    17da:	80 93 d4 00 	sts	0x00D4, r24	; 0x8000d4 <iLed>
C:\Users\user\Desktop\LedDriver\LedDriver2/LedDriver2.ino:428
		ShiftLed(GreenDD);
    17de:	81 e0       	ldi	r24, 0x01	; 1
    17e0:	08 d9       	rcall	.-3568   	; 0x9f2 <ShiftLed(unsigned char)>
C:\Users\user\Desktop\LedDriver\LedDriver2/LedDriver2.ino:429
		if(iFrame) {
    17e2:	80 91 19 01 	lds	r24, 0x0119	; 0x800119 <iFrame>
    17e6:	88 23       	and	r24, r24
    17e8:	29 f0       	breq	.+10     	; 0x17f4 <L_5467+0x95e>
C:\Users\user\Desktop\LedDriver\LedDriver2/LedDriver2.ino:430
			iFrame = 0;
    17ea:	10 92 19 01 	sts	0x0119, r1	; 0x800119 <iFrame>
C:\Users\user\Desktop\LedDriver\LedDriver2/LedDriver2.ino:435
		}
		else{
			iFrame += NUM_LEDS/4;
		}
		FastLED.show();
    17ee:	cb d4       	rcall	.+2454   	; 0x2186 <__TEXT_REGION_LENGTH__+0x186>
C:\Users\user\Desktop\LedDriver\LedDriver2/LedDriver2.ino:436
		FrameDelay = 80;
    17f0:	80 e5       	ldi	r24, 0x50	; 80
    17f2:	ce ca       	rjmp	.-2660   	; 0xd90 <main+0x268>
C:\Users\user\Desktop\LedDriver\LedDriver2/LedDriver2.ino:433
		ShiftLed(GreenDD);
		if(iFrame) {
			iFrame = 0;
		}
		else{
			iFrame += NUM_LEDS/4;
    17f4:	85 e0       	ldi	r24, 0x05	; 5
    17f6:	80 93 19 01 	sts	0x0119, r24	; 0x800119 <iFrame>
    17fa:	f9 cf       	rjmp	.-14     	; 0x17ee <L_5467+0x958>
C:\Users\user\Desktop\LedDriver\LedDriver2/LedDriver2.ino:439
		}
		FastLED.show();
		FrameDelay = 80;
  	}
  	//////////////////// STATUS 18 ///////////////////////
  	else if(Status == 18)  {
    17fc:	82 31       	cpi	r24, 0x12	; 18
    17fe:	e1 f4       	brne	.+56     	; 0x1838 <L_5467+0x9a2>
    1800:	e0 ec       	ldi	r30, 0xC0	; 192
    1802:	f0 e0       	ldi	r31, 0x00	; 0
C:\Users\user\Desktop\LedDriver\LedDriver2/LedDriver2.ino:440
		for (iLed=0; iLed<NUM_LEDS; iLed++) { Vect[iLed] = 0; }
    1804:	85 e1       	ldi	r24, 0x15	; 21
    1806:	81 50       	subi	r24, 0x01	; 1
    1808:	11 f0       	breq	.+4      	; 0x180e <L_5467+0x978>
    180a:	11 92       	st	Z+, r1
    180c:	fc cf       	rjmp	.-8      	; 0x1806 <L_5467+0x970>
    180e:	84 e1       	ldi	r24, 0x14	; 20
    1810:	80 93 d4 00 	sts	0x00D4, r24	; 0x8000d4 <iLed>
C:\Users\user\Desktop\LedDriver\LedDriver2/LedDriver2.ino:441
		Vect[0] = 255;
    1814:	8f ef       	ldi	r24, 0xFF	; 255
    1816:	80 93 c0 00 	sts	0x00C0, r24	; 0x8000c0 <Vect>
C:\Users\user\Desktop\LedDriver\LedDriver2/LedDriver2.ino:442
		Vect[1] = 255;
    181a:	80 93 c1 00 	sts	0x00C1, r24	; 0x8000c1 <Vect+0x1>
C:\Users\user\Desktop\LedDriver\LedDriver2/LedDriver2.ino:443
		Vect[2] = 255;
    181e:	80 93 c2 00 	sts	0x00C2, r24	; 0x8000c2 <Vect+0x2>
C:\Users\user\Desktop\LedDriver\LedDriver2/LedDriver2.ino:444
		Vect[3] = 255;
    1822:	80 93 c3 00 	sts	0x00C3, r24	; 0x8000c3 <Vect+0x3>
C:\Users\user\Desktop\LedDriver\LedDriver2/LedDriver2.ino:445
		Vect[NUM_LEDS/2] = 255;
    1826:	80 93 ca 00 	sts	0x00CA, r24	; 0x8000ca <Vect+0xa>
C:\Users\user\Desktop\LedDriver\LedDriver2/LedDriver2.ino:446
		Vect[NUM_LEDS/2 + 1] = 255;
    182a:	80 93 cb 00 	sts	0x00CB, r24	; 0x8000cb <Vect+0xb>
C:\Users\user\Desktop\LedDriver\LedDriver2/LedDriver2.ino:447
		Vect[NUM_LEDS/2 + 2] = 255;
    182e:	80 93 cc 00 	sts	0x00CC, r24	; 0x8000cc <Vect+0xc>
C:\Users\user\Desktop\LedDriver\LedDriver2/LedDriver2.ino:448
		Vect[NUM_LEDS/2 + 3] = 255;
    1832:	80 93 cd 00 	sts	0x00CD, r24	; 0x8000cd <Vect+0xd>
    1836:	39 cd       	rjmp	.-1422   	; 0x12aa <L_5467+0x414>
C:\Users\user\Desktop\LedDriver\LedDriver2/LedDriver2.ino:456
		else                            { iFrame++; }
		FastLED.show();
		FrameDelay = 15;
  	}
  	//////////////////// STATUS 19 ///////////////////////
  	else if(Status == 19)  {
    1838:	83 31       	cpi	r24, 0x13	; 19
    183a:	69 f5       	brne	.+90     	; 0x1896 <L_5467+0xa00>
    183c:	e0 ec       	ldi	r30, 0xC0	; 192
    183e:	f0 e0       	ldi	r31, 0x00	; 0
C:\Users\user\Desktop\LedDriver\LedDriver2/LedDriver2.ino:457
		for (iLed=0; iLed<NUM_LEDS; iLed++) { Vect[iLed] = 0; }
    1840:	85 e1       	ldi	r24, 0x15	; 21
    1842:	81 50       	subi	r24, 0x01	; 1
    1844:	11 f0       	breq	.+4      	; 0x184a <L_5467+0x9b4>
    1846:	11 92       	st	Z+, r1
    1848:	fc cf       	rjmp	.-8      	; 0x1842 <L_5467+0x9ac>
    184a:	84 e1       	ldi	r24, 0x14	; 20
    184c:	80 93 d4 00 	sts	0x00D4, r24	; 0x8000d4 <iLed>
C:\Users\user\Desktop\LedDriver\LedDriver2/LedDriver2.ino:458
		Vect[NUM_LEDS - 1] = 255;
    1850:	8f ef       	ldi	r24, 0xFF	; 255
    1852:	80 93 d3 00 	sts	0x00D3, r24	; 0x8000d3 <Vect+0x13>
C:\Users\user\Desktop\LedDriver\LedDriver2/LedDriver2.ino:459
		Vect[NUM_LEDS - 2] = 255;
    1856:	80 93 d2 00 	sts	0x00D2, r24	; 0x8000d2 <Vect+0x12>
C:\Users\user\Desktop\LedDriver\LedDriver2/LedDriver2.ino:460
		Vect[NUM_LEDS - 3] = 255;
    185a:	80 93 d1 00 	sts	0x00D1, r24	; 0x8000d1 <Vect+0x11>
C:\Users\user\Desktop\LedDriver\LedDriver2/LedDriver2.ino:461
		Vect[NUM_LEDS - 4] = 255;
    185e:	80 93 d0 00 	sts	0x00D0, r24	; 0x8000d0 <Vect+0x10>
C:\Users\user\Desktop\LedDriver\LedDriver2/LedDriver2.ino:462
		ShiftLed(GreenDD);
    1862:	81 e0       	ldi	r24, 0x01	; 1
    1864:	c6 d8       	rcall	.-3700   	; 0x9f2 <ShiftLed(unsigned char)>
C:\Users\user\Desktop\LedDriver\LedDriver2/LedDriver2.ino:463
		if		(iFrame == NUM_LEDS - 4)	{ CountDir = CountDown;}
    1866:	80 91 19 01 	lds	r24, 0x0119	; 0x800119 <iFrame>
    186a:	80 31       	cpi	r24, 0x10	; 16
    186c:	69 f4       	brne	.+26     	; 0x1888 <L_5467+0x9f2>
    186e:	91 e0       	ldi	r25, 0x01	; 1
    1870:	90 93 17 01 	sts	0x0117, r25	; 0x800117 <CountDir>
C:\Users\user\Desktop\LedDriver\LedDriver2/LedDriver2.ino:465
		else if	(iFrame == 0)             	{ CountDir = CountUp;}
		if		(CountDir == CountUp)		{ iFrame ++;}
    1874:	90 91 17 01 	lds	r25, 0x0117	; 0x800117 <CountDir>
    1878:	91 11       	cpse	r25, r1
    187a:	0b c0       	rjmp	.+22     	; 0x1892 <L_5467+0x9fc>
    187c:	8f 5f       	subi	r24, 0xFF	; 255
C:\Users\user\Desktop\LedDriver\LedDriver2/LedDriver2.ino:466
		else								{ iFrame --;}
    187e:	80 93 19 01 	sts	0x0119, r24	; 0x800119 <iFrame>
C:\Users\user\Desktop\LedDriver\LedDriver2/LedDriver2.ino:467
		FastLED.show();
    1882:	81 d4       	rcall	.+2306   	; 0x2186 <__TEXT_REGION_LENGTH__+0x186>
C:\Users\user\Desktop\LedDriver\LedDriver2/LedDriver2.ino:468
		FrameDelay = 8;
    1884:	88 e0       	ldi	r24, 0x08	; 8
    1886:	84 ca       	rjmp	.-2808   	; 0xd90 <main+0x268>
C:\Users\user\Desktop\LedDriver\LedDriver2/LedDriver2.ino:464
		Vect[NUM_LEDS - 2] = 255;
		Vect[NUM_LEDS - 3] = 255;
		Vect[NUM_LEDS - 4] = 255;
		ShiftLed(GreenDD);
		if		(iFrame == NUM_LEDS - 4)	{ CountDir = CountDown;}
		else if	(iFrame == 0)             	{ CountDir = CountUp;}
    1888:	81 11       	cpse	r24, r1
    188a:	f4 cf       	rjmp	.-24     	; 0x1874 <L_5467+0x9de>
    188c:	10 92 17 01 	sts	0x0117, r1	; 0x800117 <CountDir>
    1890:	f1 cf       	rjmp	.-30     	; 0x1874 <L_5467+0x9de>
C:\Users\user\Desktop\LedDriver\LedDriver2/LedDriver2.ino:466
		if		(CountDir == CountUp)		{ iFrame ++;}
		else								{ iFrame --;}
    1892:	81 50       	subi	r24, 0x01	; 1
    1894:	f4 cf       	rjmp	.-24     	; 0x187e <L_5467+0x9e8>
C:\Users\user\Desktop\LedDriver\LedDriver2/LedDriver2.ino:471
		FastLED.show();
		FrameDelay = 8;
  	}
  	//////////////////// STATUS 20 ///////////////////////
  	else if(Status == 20)  {
    1896:	84 31       	cpi	r24, 0x14	; 20
    1898:	c1 f5       	brne	.+112    	; 0x190a <L_5467+0xa74>
    189a:	e0 ec       	ldi	r30, 0xC0	; 192
    189c:	f0 e0       	ldi	r31, 0x00	; 0
C:\Users\user\Desktop\LedDriver\LedDriver2/LedDriver2.ino:472
		for (iLed=0; iLed<NUM_LEDS; iLed++) { Vect[iLed] = 0; }
    189e:	85 e1       	ldi	r24, 0x15	; 21
    18a0:	81 50       	subi	r24, 0x01	; 1
    18a2:	11 f0       	breq	.+4      	; 0x18a8 <L_5467+0xa12>
    18a4:	11 92       	st	Z+, r1
    18a6:	fc cf       	rjmp	.-8      	; 0x18a0 <L_5467+0xa0a>
    18a8:	84 e1       	ldi	r24, 0x14	; 20
    18aa:	80 93 d4 00 	sts	0x00D4, r24	; 0x8000d4 <iLed>
C:\Users\user\Desktop\LedDriver\LedDriver2/LedDriver2.ino:473
		Vect[NUM_LEDS - 1] = 255;
    18ae:	8f ef       	ldi	r24, 0xFF	; 255
    18b0:	80 93 d3 00 	sts	0x00D3, r24	; 0x8000d3 <Vect+0x13>
C:\Users\user\Desktop\LedDriver\LedDriver2/LedDriver2.ino:474
		Vect[NUM_LEDS - 2] = 255;
    18b4:	80 93 d2 00 	sts	0x00D2, r24	; 0x8000d2 <Vect+0x12>
C:\Users\user\Desktop\LedDriver\LedDriver2/LedDriver2.ino:475
		Vect[NUM_LEDS - 3] = 255;
    18b8:	80 93 d1 00 	sts	0x00D1, r24	; 0x8000d1 <Vect+0x11>
C:\Users\user\Desktop\LedDriver\LedDriver2/LedDriver2.ino:476
		Vect[NUM_LEDS - 4] = 255;
    18bc:	80 93 d0 00 	sts	0x00D0, r24	; 0x8000d0 <Vect+0x10>
C:\Users\user\Desktop\LedDriver\LedDriver2/LedDriver2.ino:477
		ShiftLed(RedDD);
    18c0:	80 e0       	ldi	r24, 0x00	; 0
    18c2:	97 d8       	rcall	.-3794   	; 0x9f2 <ShiftLed(unsigned char)>
C:\Users\user\Desktop\LedDriver\LedDriver2/LedDriver2.ino:478
		if  (iFrame == NUM_LEDS - 1)    { 
    18c4:	80 91 19 01 	lds	r24, 0x0119	; 0x800119 <iFrame>
    18c8:	83 31       	cpi	r24, 0x13	; 19
    18ca:	d9 f4       	brne	.+54     	; 0x1902 <L_5467+0xa6c>
C:\Users\user\Desktop\LedDriver\LedDriver2/LedDriver2.ino:479
			iFrame = 0;
    18cc:	10 92 19 01 	sts	0x0119, r1	; 0x800119 <iFrame>
C:\Users\user\Desktop\LedDriver\LedDriver2/LedDriver2.ino:480
			if		(xFrame == 8)			{ CountDir = CountDown;}
    18d0:	80 91 18 01 	lds	r24, 0x0118	; 0x800118 <xFrame>
    18d4:	88 30       	cpi	r24, 0x08	; 8
    18d6:	71 f4       	brne	.+28     	; 0x18f4 <L_5467+0xa5e>
    18d8:	91 e0       	ldi	r25, 0x01	; 1
    18da:	90 93 17 01 	sts	0x0117, r25	; 0x800117 <CountDir>
C:\Users\user\Desktop\LedDriver\LedDriver2/LedDriver2.ino:482
			else if	(xFrame == 1)       	{ CountDir = CountUp;}
			if		(CountDir == CountUp)	{ xFrame++;}
    18de:	90 91 17 01 	lds	r25, 0x0117	; 0x800117 <CountDir>
    18e2:	91 11       	cpse	r25, r1
    18e4:	0c c0       	rjmp	.+24     	; 0x18fe <L_5467+0xa68>
    18e6:	8f 5f       	subi	r24, 0xFF	; 255
C:\Users\user\Desktop\LedDriver\LedDriver2/LedDriver2.ino:483
			else							{ xFrame--;}
    18e8:	80 93 18 01 	sts	0x0118, r24	; 0x800118 <xFrame>
C:\Users\user\Desktop\LedDriver\LedDriver2/LedDriver2.ino:488
		}
		else                            { 
			iFrame++; 
		}
		FastLED.show();
    18ec:	4c d4       	rcall	.+2200   	; 0x2186 <__TEXT_REGION_LENGTH__+0x186>
C:\Users\user\Desktop\LedDriver\LedDriver2/LedDriver2.ino:489
		FrameDelay = xFrame;
    18ee:	80 91 18 01 	lds	r24, 0x0118	; 0x800118 <xFrame>
    18f2:	4e ca       	rjmp	.-2916   	; 0xd90 <main+0x268>
C:\Users\user\Desktop\LedDriver\LedDriver2/LedDriver2.ino:481
		Vect[NUM_LEDS - 4] = 255;
		ShiftLed(RedDD);
		if  (iFrame == NUM_LEDS - 1)    { 
			iFrame = 0;
			if		(xFrame == 8)			{ CountDir = CountDown;}
			else if	(xFrame == 1)       	{ CountDir = CountUp;}
    18f4:	81 30       	cpi	r24, 0x01	; 1
    18f6:	99 f7       	brne	.-26     	; 0x18de <L_5467+0xa48>
    18f8:	10 92 17 01 	sts	0x0117, r1	; 0x800117 <CountDir>
    18fc:	f0 cf       	rjmp	.-32     	; 0x18de <L_5467+0xa48>
C:\Users\user\Desktop\LedDriver\LedDriver2/LedDriver2.ino:483
			if		(CountDir == CountUp)	{ xFrame++;}
			else							{ xFrame--;}
    18fe:	81 50       	subi	r24, 0x01	; 1
    1900:	f3 cf       	rjmp	.-26     	; 0x18e8 <L_5467+0xa52>
C:\Users\user\Desktop\LedDriver\LedDriver2/LedDriver2.ino:486
		}
		else                            { 
			iFrame++; 
    1902:	8f 5f       	subi	r24, 0xFF	; 255
    1904:	80 93 19 01 	sts	0x0119, r24	; 0x800119 <iFrame>
    1908:	f1 cf       	rjmp	.-30     	; 0x18ec <L_5467+0xa56>
C:\Users\user\Desktop\LedDriver\LedDriver2/LedDriver2.ino:493
		FastLED.show();
		FrameDelay = xFrame;
  	}
	//////////////////// STATUS OTHERS ///////////////////////
	else	{
		Status = 0;
    190a:	10 92 1a 01 	sts	0x011A, r1	; 0x80011a <Status>
    190e:	42 ca       	rjmp	.-2940   	; 0xd94 <main+0x26c>

00001910 <_GLOBAL__sub_I_pSmartMatrix>:
_GLOBAL__sub_I_pSmartMatrix():
C:\Users\user\Documents\Arduino\libraries\FastLED\src/FastLED.cpp:36
// uint32_t CRGB::Squant = ((uint32_t)((__TIME__[4]-'0') * 28))<<16 | ((__TIME__[6]-'0')*50)<<8 | ((__TIME__[7]-'0')*28);

CFastLED::CFastLED() {
	// clear out the array of led controllers
	// m_nControllers = 0;
	m_Scale = 255;
    1910:	ed e2       	ldi	r30, 0x2D	; 45
    1912:	f1 e0       	ldi	r31, 0x01	; 1
    1914:	8f ef       	ldi	r24, 0xFF	; 255
    1916:	80 83       	st	Z, r24
C:\Users\user\Documents\Arduino\libraries\FastLED\src/FastLED.cpp:37
	m_nFPS = 0;
    1918:	12 82       	std	Z+2, r1	; 0x02
    191a:	11 82       	std	Z+1, r1	; 0x01
C:\Users\user\Documents\Arduino\libraries\FastLED\src/FastLED.cpp:38
	m_pPowerFunc = NULL;
    191c:	14 86       	std	Z+12, r1	; 0x0c
    191e:	13 86       	std	Z+11, r1	; 0x0b
C:\Users\user\Documents\Arduino\libraries\FastLED\src/FastLED.cpp:39
	m_nPowerData = 0xFFFFFFFF;
    1920:	8f ef       	ldi	r24, 0xFF	; 255
    1922:	9f ef       	ldi	r25, 0xFF	; 255
    1924:	dc 01       	movw	r26, r24
    1926:	87 83       	std	Z+7, r24	; 0x07
    1928:	90 87       	std	Z+8, r25	; 0x08
    192a:	a1 87       	std	Z+9, r26	; 0x09
    192c:	b2 87       	std	Z+10, r27	; 0x0a
C:\Users\user\Documents\Arduino\libraries\FastLED\src/FastLED.cpp:254
}

/// Called at program exit when run in a desktop environment. 
/// Extra C definition that some environments may need. 
/// @returns 0 to indicate success
extern "C" int atexit(void (* /*func*/ )()) { return 0; }
    192e:	08 95       	ret

00001930 <random_r>:
random_r():
    1930:	8f 92       	push	r8
    1932:	9f 92       	push	r9
    1934:	af 92       	push	r10
    1936:	bf 92       	push	r11
    1938:	cf 92       	push	r12
    193a:	df 92       	push	r13
    193c:	ef 92       	push	r14
    193e:	ff 92       	push	r15
    1940:	cf 93       	push	r28
    1942:	df 93       	push	r29
    1944:	ec 01       	movw	r28, r24
    1946:	68 81       	ld	r22, Y
    1948:	79 81       	ldd	r23, Y+1	; 0x01
    194a:	8a 81       	ldd	r24, Y+2	; 0x02
    194c:	9b 81       	ldd	r25, Y+3	; 0x03
    194e:	61 15       	cp	r22, r1
    1950:	71 05       	cpc	r23, r1
    1952:	81 05       	cpc	r24, r1
    1954:	91 05       	cpc	r25, r1
    1956:	21 f4       	brne	.+8      	; 0x1960 <random_r+0x30>
    1958:	64 e2       	ldi	r22, 0x24	; 36
    195a:	79 ed       	ldi	r23, 0xD9	; 217
    195c:	8b e5       	ldi	r24, 0x5B	; 91
    195e:	97 e0       	ldi	r25, 0x07	; 7
    1960:	2d e1       	ldi	r18, 0x1D	; 29
    1962:	33 ef       	ldi	r19, 0xF3	; 243
    1964:	41 e0       	ldi	r20, 0x01	; 1
    1966:	50 e0       	ldi	r21, 0x00	; 0
    1968:	81 d0       	rcall	.+258    	; 0x1a6c <__divmodsi4>
    196a:	49 01       	movw	r8, r18
    196c:	5a 01       	movw	r10, r20
    196e:	9b 01       	movw	r18, r22
    1970:	ac 01       	movw	r20, r24
    1972:	a7 ea       	ldi	r26, 0xA7	; 167
    1974:	b1 e4       	ldi	r27, 0x41	; 65
    1976:	96 d0       	rcall	.+300    	; 0x1aa4 <__muluhisi3>
    1978:	6b 01       	movw	r12, r22
    197a:	7c 01       	movw	r14, r24
    197c:	ac ee       	ldi	r26, 0xEC	; 236
    197e:	b4 ef       	ldi	r27, 0xF4	; 244
    1980:	a5 01       	movw	r20, r10
    1982:	94 01       	movw	r18, r8
    1984:	9b d0       	rcall	.+310    	; 0x1abc <__mulohisi3>
    1986:	c6 0e       	add	r12, r22
    1988:	d7 1e       	adc	r13, r23
    198a:	e8 1e       	adc	r14, r24
    198c:	f9 1e       	adc	r15, r25
    198e:	f7 fe       	sbrs	r15, 7
    1990:	06 c0       	rjmp	.+12     	; 0x199e <random_r+0x6e>
    1992:	81 e0       	ldi	r24, 0x01	; 1
    1994:	c8 1a       	sub	r12, r24
    1996:	d1 08       	sbc	r13, r1
    1998:	e1 08       	sbc	r14, r1
    199a:	80 e8       	ldi	r24, 0x80	; 128
    199c:	f8 0a       	sbc	r15, r24
    199e:	c8 82       	st	Y, r12
    19a0:	d9 82       	std	Y+1, r13	; 0x01
    19a2:	ea 82       	std	Y+2, r14	; 0x02
    19a4:	fb 82       	std	Y+3, r15	; 0x03
    19a6:	c7 01       	movw	r24, r14
    19a8:	b6 01       	movw	r22, r12
    19aa:	9f 77       	andi	r25, 0x7F	; 127
    19ac:	df 91       	pop	r29
    19ae:	cf 91       	pop	r28
    19b0:	ff 90       	pop	r15
    19b2:	ef 90       	pop	r14
    19b4:	df 90       	pop	r13
    19b6:	cf 90       	pop	r12
    19b8:	bf 90       	pop	r11
    19ba:	af 90       	pop	r10
    19bc:	9f 90       	pop	r9
    19be:	8f 90       	pop	r8
    19c0:	08 95       	ret

000019c2 <random>:
random():
    19c2:	8f 92       	push	r8
    19c4:	9f 92       	push	r9
    19c6:	af 92       	push	r10
    19c8:	bf 92       	push	r11
    19ca:	cf 92       	push	r12
    19cc:	df 92       	push	r13
    19ce:	ef 92       	push	r14
    19d0:	ff 92       	push	r15
    19d2:	60 91 60 00 	lds	r22, 0x0060	; 0x800060 <__DATA_REGION_ORIGIN__>
    19d6:	70 91 61 00 	lds	r23, 0x0061	; 0x800061 <__DATA_REGION_ORIGIN__+0x1>
    19da:	80 91 62 00 	lds	r24, 0x0062	; 0x800062 <__DATA_REGION_ORIGIN__+0x2>
    19de:	90 91 63 00 	lds	r25, 0x0063	; 0x800063 <__DATA_REGION_ORIGIN__+0x3>
    19e2:	61 15       	cp	r22, r1
    19e4:	71 05       	cpc	r23, r1
    19e6:	81 05       	cpc	r24, r1
    19e8:	91 05       	cpc	r25, r1
    19ea:	21 f4       	brne	.+8      	; 0x19f4 <random+0x32>
    19ec:	64 e2       	ldi	r22, 0x24	; 36
    19ee:	79 ed       	ldi	r23, 0xD9	; 217
    19f0:	8b e5       	ldi	r24, 0x5B	; 91
    19f2:	97 e0       	ldi	r25, 0x07	; 7
    19f4:	2d e1       	ldi	r18, 0x1D	; 29
    19f6:	33 ef       	ldi	r19, 0xF3	; 243
    19f8:	41 e0       	ldi	r20, 0x01	; 1
    19fa:	50 e0       	ldi	r21, 0x00	; 0
    19fc:	37 d0       	rcall	.+110    	; 0x1a6c <__divmodsi4>
    19fe:	49 01       	movw	r8, r18
    1a00:	5a 01       	movw	r10, r20
    1a02:	9b 01       	movw	r18, r22
    1a04:	ac 01       	movw	r20, r24
    1a06:	a7 ea       	ldi	r26, 0xA7	; 167
    1a08:	b1 e4       	ldi	r27, 0x41	; 65
    1a0a:	4c d0       	rcall	.+152    	; 0x1aa4 <__muluhisi3>
    1a0c:	6b 01       	movw	r12, r22
    1a0e:	7c 01       	movw	r14, r24
    1a10:	ac ee       	ldi	r26, 0xEC	; 236
    1a12:	b4 ef       	ldi	r27, 0xF4	; 244
    1a14:	a5 01       	movw	r20, r10
    1a16:	94 01       	movw	r18, r8
    1a18:	51 d0       	rcall	.+162    	; 0x1abc <__mulohisi3>
    1a1a:	c6 0e       	add	r12, r22
    1a1c:	d7 1e       	adc	r13, r23
    1a1e:	e8 1e       	adc	r14, r24
    1a20:	f9 1e       	adc	r15, r25
    1a22:	f7 fe       	sbrs	r15, 7
    1a24:	06 c0       	rjmp	.+12     	; 0x1a32 <random+0x70>
    1a26:	81 e0       	ldi	r24, 0x01	; 1
    1a28:	c8 1a       	sub	r12, r24
    1a2a:	d1 08       	sbc	r13, r1
    1a2c:	e1 08       	sbc	r14, r1
    1a2e:	80 e8       	ldi	r24, 0x80	; 128
    1a30:	f8 0a       	sbc	r15, r24
    1a32:	c0 92 60 00 	sts	0x0060, r12	; 0x800060 <__DATA_REGION_ORIGIN__>
    1a36:	d0 92 61 00 	sts	0x0061, r13	; 0x800061 <__DATA_REGION_ORIGIN__+0x1>
    1a3a:	e0 92 62 00 	sts	0x0062, r14	; 0x800062 <__DATA_REGION_ORIGIN__+0x2>
    1a3e:	f0 92 63 00 	sts	0x0063, r15	; 0x800063 <__DATA_REGION_ORIGIN__+0x3>
    1a42:	c7 01       	movw	r24, r14
    1a44:	b6 01       	movw	r22, r12
    1a46:	9f 77       	andi	r25, 0x7F	; 127
    1a48:	ff 90       	pop	r15
    1a4a:	ef 90       	pop	r14
    1a4c:	df 90       	pop	r13
    1a4e:	cf 90       	pop	r12
    1a50:	bf 90       	pop	r11
    1a52:	af 90       	pop	r10
    1a54:	9f 90       	pop	r9
    1a56:	8f 90       	pop	r8
    1a58:	08 95       	ret

00001a5a <srandom>:
srandom():
    1a5a:	60 93 60 00 	sts	0x0060, r22	; 0x800060 <__DATA_REGION_ORIGIN__>
    1a5e:	70 93 61 00 	sts	0x0061, r23	; 0x800061 <__DATA_REGION_ORIGIN__+0x1>
    1a62:	80 93 62 00 	sts	0x0062, r24	; 0x800062 <__DATA_REGION_ORIGIN__+0x2>
    1a66:	90 93 63 00 	sts	0x0063, r25	; 0x800063 <__DATA_REGION_ORIGIN__+0x3>
    1a6a:	08 95       	ret

00001a6c <__divmodsi4>:
__divmodsi4():
/home/jenkins-mingw32/workspace/avr-gcc-staging/label/Ubuntu14.04x64-mingw32/gcc-build/avr/avr4/libgcc/../../../../gcc/libgcc/config/avr/lib1funcs.S:1686
    1a6c:	05 2e       	mov	r0, r21
/home/jenkins-mingw32/workspace/avr-gcc-staging/label/Ubuntu14.04x64-mingw32/gcc-build/avr/avr4/libgcc/../../../../gcc/libgcc/config/avr/lib1funcs.S:1687
    1a6e:	97 fb       	bst	r25, 7
/home/jenkins-mingw32/workspace/avr-gcc-staging/label/Ubuntu14.04x64-mingw32/gcc-build/avr/avr4/libgcc/../../../../gcc/libgcc/config/avr/lib1funcs.S:1688
    1a70:	16 f4       	brtc	.+4      	; 0x1a76 <__divmodsi4+0xa>
/home/jenkins-mingw32/workspace/avr-gcc-staging/label/Ubuntu14.04x64-mingw32/gcc-build/avr/avr4/libgcc/../../../../gcc/libgcc/config/avr/lib1funcs.S:1689
    1a72:	00 94       	com	r0
/home/jenkins-mingw32/workspace/avr-gcc-staging/label/Ubuntu14.04x64-mingw32/gcc-build/avr/avr4/libgcc/../../../../gcc/libgcc/config/avr/lib1funcs.S:1690
    1a74:	0f d0       	rcall	.+30     	; 0x1a94 <__negsi2>
/home/jenkins-mingw32/workspace/avr-gcc-staging/label/Ubuntu14.04x64-mingw32/gcc-build/avr/avr4/libgcc/../../../../gcc/libgcc/config/avr/lib1funcs.S:1692
    1a76:	57 fd       	sbrc	r21, 7
/home/jenkins-mingw32/workspace/avr-gcc-staging/label/Ubuntu14.04x64-mingw32/gcc-build/avr/avr4/libgcc/../../../../gcc/libgcc/config/avr/lib1funcs.S:1693
    1a78:	05 d0       	rcall	.+10     	; 0x1a84 <__divmodsi4_neg2>
/home/jenkins-mingw32/workspace/avr-gcc-staging/label/Ubuntu14.04x64-mingw32/gcc-build/avr/avr4/libgcc/../../../../gcc/libgcc/config/avr/lib1funcs.S:1694
    1a7a:	24 d0       	rcall	.+72     	; 0x1ac4 <__udivmodsi4>
/home/jenkins-mingw32/workspace/avr-gcc-staging/label/Ubuntu14.04x64-mingw32/gcc-build/avr/avr4/libgcc/../../../../gcc/libgcc/config/avr/lib1funcs.S:1695
    1a7c:	07 fc       	sbrc	r0, 7
/home/jenkins-mingw32/workspace/avr-gcc-staging/label/Ubuntu14.04x64-mingw32/gcc-build/avr/avr4/libgcc/../../../../gcc/libgcc/config/avr/lib1funcs.S:1696
    1a7e:	02 d0       	rcall	.+4      	; 0x1a84 <__divmodsi4_neg2>
/home/jenkins-mingw32/workspace/avr-gcc-staging/label/Ubuntu14.04x64-mingw32/gcc-build/avr/avr4/libgcc/../../../../gcc/libgcc/config/avr/lib1funcs.S:1697
    1a80:	46 f4       	brtc	.+16     	; 0x1a92 <__divmodsi4_exit>
/home/jenkins-mingw32/workspace/avr-gcc-staging/label/Ubuntu14.04x64-mingw32/gcc-build/avr/avr4/libgcc/../../../../gcc/libgcc/config/avr/lib1funcs.S:1698
    1a82:	08 c0       	rjmp	.+16     	; 0x1a94 <__negsi2>

00001a84 <__divmodsi4_neg2>:
/home/jenkins-mingw32/workspace/avr-gcc-staging/label/Ubuntu14.04x64-mingw32/gcc-build/avr/avr4/libgcc/../../../../gcc/libgcc/config/avr/lib1funcs.S:1701
    1a84:	50 95       	com	r21
/home/jenkins-mingw32/workspace/avr-gcc-staging/label/Ubuntu14.04x64-mingw32/gcc-build/avr/avr4/libgcc/../../../../gcc/libgcc/config/avr/lib1funcs.S:1702
    1a86:	40 95       	com	r20
/home/jenkins-mingw32/workspace/avr-gcc-staging/label/Ubuntu14.04x64-mingw32/gcc-build/avr/avr4/libgcc/../../../../gcc/libgcc/config/avr/lib1funcs.S:1703
    1a88:	30 95       	com	r19
/home/jenkins-mingw32/workspace/avr-gcc-staging/label/Ubuntu14.04x64-mingw32/gcc-build/avr/avr4/libgcc/../../../../gcc/libgcc/config/avr/lib1funcs.S:1704
    1a8a:	21 95       	neg	r18
/home/jenkins-mingw32/workspace/avr-gcc-staging/label/Ubuntu14.04x64-mingw32/gcc-build/avr/avr4/libgcc/../../../../gcc/libgcc/config/avr/lib1funcs.S:1705
    1a8c:	3f 4f       	sbci	r19, 0xFF	; 255
/home/jenkins-mingw32/workspace/avr-gcc-staging/label/Ubuntu14.04x64-mingw32/gcc-build/avr/avr4/libgcc/../../../../gcc/libgcc/config/avr/lib1funcs.S:1706
    1a8e:	4f 4f       	sbci	r20, 0xFF	; 255
/home/jenkins-mingw32/workspace/avr-gcc-staging/label/Ubuntu14.04x64-mingw32/gcc-build/avr/avr4/libgcc/../../../../gcc/libgcc/config/avr/lib1funcs.S:1707
    1a90:	5f 4f       	sbci	r21, 0xFF	; 255

00001a92 <__divmodsi4_exit>:
/home/jenkins-mingw32/workspace/avr-gcc-staging/label/Ubuntu14.04x64-mingw32/gcc-build/avr/avr4/libgcc/../../../../gcc/libgcc/config/avr/lib1funcs.S:1709
    1a92:	08 95       	ret

00001a94 <__negsi2>:
__negsi2():
/home/jenkins-mingw32/workspace/avr-gcc-staging/label/Ubuntu14.04x64-mingw32/gcc-build/avr/avr4/libgcc/../../../../gcc/libgcc/config/avr/lib1funcs.S:1718
    1a94:	90 95       	com	r25
    1a96:	80 95       	com	r24
    1a98:	70 95       	com	r23
    1a9a:	61 95       	neg	r22
    1a9c:	7f 4f       	sbci	r23, 0xFF	; 255
    1a9e:	8f 4f       	sbci	r24, 0xFF	; 255
    1aa0:	9f 4f       	sbci	r25, 0xFF	; 255
/home/jenkins-mingw32/workspace/avr-gcc-staging/label/Ubuntu14.04x64-mingw32/gcc-build/avr/avr4/libgcc/../../../../gcc/libgcc/config/avr/lib1funcs.S:1719
    1aa2:	08 95       	ret

00001aa4 <__muluhisi3>:
__muluhisi3():
/home/jenkins-mingw32/workspace/avr-gcc-staging/label/Ubuntu14.04x64-mingw32/gcc-build/avr/avr4/libgcc/../../../../gcc/libgcc/config/avr/lib1funcs.S:626
    1aa4:	31 d0       	rcall	.+98     	; 0x1b08 <__umulhisi3>
/home/jenkins-mingw32/workspace/avr-gcc-staging/label/Ubuntu14.04x64-mingw32/gcc-build/avr/avr4/libgcc/../../../../gcc/libgcc/config/avr/lib1funcs.S:627
    1aa6:	a5 9f       	mul	r26, r21
/home/jenkins-mingw32/workspace/avr-gcc-staging/label/Ubuntu14.04x64-mingw32/gcc-build/avr/avr4/libgcc/../../../../gcc/libgcc/config/avr/lib1funcs.S:628
    1aa8:	90 0d       	add	r25, r0
/home/jenkins-mingw32/workspace/avr-gcc-staging/label/Ubuntu14.04x64-mingw32/gcc-build/avr/avr4/libgcc/../../../../gcc/libgcc/config/avr/lib1funcs.S:629
    1aaa:	b4 9f       	mul	r27, r20
/home/jenkins-mingw32/workspace/avr-gcc-staging/label/Ubuntu14.04x64-mingw32/gcc-build/avr/avr4/libgcc/../../../../gcc/libgcc/config/avr/lib1funcs.S:630
    1aac:	90 0d       	add	r25, r0
/home/jenkins-mingw32/workspace/avr-gcc-staging/label/Ubuntu14.04x64-mingw32/gcc-build/avr/avr4/libgcc/../../../../gcc/libgcc/config/avr/lib1funcs.S:631
    1aae:	a4 9f       	mul	r26, r20
/home/jenkins-mingw32/workspace/avr-gcc-staging/label/Ubuntu14.04x64-mingw32/gcc-build/avr/avr4/libgcc/../../../../gcc/libgcc/config/avr/lib1funcs.S:632
    1ab0:	80 0d       	add	r24, r0
/home/jenkins-mingw32/workspace/avr-gcc-staging/label/Ubuntu14.04x64-mingw32/gcc-build/avr/avr4/libgcc/../../../../gcc/libgcc/config/avr/lib1funcs.S:633
    1ab2:	91 1d       	adc	r25, r1
/home/jenkins-mingw32/workspace/avr-gcc-staging/label/Ubuntu14.04x64-mingw32/gcc-build/avr/avr4/libgcc/../../../../gcc/libgcc/config/avr/lib1funcs.S:634
    1ab4:	11 24       	eor	r1, r1
/home/jenkins-mingw32/workspace/avr-gcc-staging/label/Ubuntu14.04x64-mingw32/gcc-build/avr/avr4/libgcc/../../../../gcc/libgcc/config/avr/lib1funcs.S:635
    1ab6:	08 95       	ret

00001ab8 <__mulshisi3>:
__mulshisi3():
/home/jenkins-mingw32/workspace/avr-gcc-staging/label/Ubuntu14.04x64-mingw32/gcc-build/avr/avr4/libgcc/../../../../gcc/libgcc/config/avr/lib1funcs.S:603
    1ab8:	b7 ff       	sbrs	r27, 7
/home/jenkins-mingw32/workspace/avr-gcc-staging/label/Ubuntu14.04x64-mingw32/gcc-build/avr/avr4/libgcc/../../../../gcc/libgcc/config/avr/lib1funcs.S:605
    1aba:	f4 cf       	rjmp	.-24     	; 0x1aa4 <__muluhisi3>

00001abc <__mulohisi3>:
__mulohisi3():
/home/jenkins-mingw32/workspace/avr-gcc-staging/label/Ubuntu14.04x64-mingw32/gcc-build/avr/avr4/libgcc/../../../../gcc/libgcc/config/avr/lib1funcs.S:613
    1abc:	f3 df       	rcall	.-26     	; 0x1aa4 <__muluhisi3>
/home/jenkins-mingw32/workspace/avr-gcc-staging/label/Ubuntu14.04x64-mingw32/gcc-build/avr/avr4/libgcc/../../../../gcc/libgcc/config/avr/lib1funcs.S:615
    1abe:	82 1b       	sub	r24, r18
/home/jenkins-mingw32/workspace/avr-gcc-staging/label/Ubuntu14.04x64-mingw32/gcc-build/avr/avr4/libgcc/../../../../gcc/libgcc/config/avr/lib1funcs.S:616
    1ac0:	93 0b       	sbc	r25, r19
/home/jenkins-mingw32/workspace/avr-gcc-staging/label/Ubuntu14.04x64-mingw32/gcc-build/avr/avr4/libgcc/../../../../gcc/libgcc/config/avr/lib1funcs.S:617
    1ac2:	08 95       	ret

00001ac4 <__udivmodsi4>:
__udivmodsi4():
/home/jenkins-mingw32/workspace/avr-gcc-staging/label/Ubuntu14.04x64-mingw32/gcc-build/avr/avr4/libgcc/../../../../gcc/libgcc/config/avr/lib1funcs.S:1638
    1ac4:	a1 e2       	ldi	r26, 0x21	; 33
/home/jenkins-mingw32/workspace/avr-gcc-staging/label/Ubuntu14.04x64-mingw32/gcc-build/avr/avr4/libgcc/../../../../gcc/libgcc/config/avr/lib1funcs.S:1639
    1ac6:	1a 2e       	mov	r1, r26
/home/jenkins-mingw32/workspace/avr-gcc-staging/label/Ubuntu14.04x64-mingw32/gcc-build/avr/avr4/libgcc/../../../../gcc/libgcc/config/avr/lib1funcs.S:1640
    1ac8:	aa 1b       	sub	r26, r26
/home/jenkins-mingw32/workspace/avr-gcc-staging/label/Ubuntu14.04x64-mingw32/gcc-build/avr/avr4/libgcc/../../../../gcc/libgcc/config/avr/lib1funcs.S:1641
    1aca:	bb 1b       	sub	r27, r27
/home/jenkins-mingw32/workspace/avr-gcc-staging/label/Ubuntu14.04x64-mingw32/gcc-build/avr/avr4/libgcc/../../../../gcc/libgcc/config/avr/lib1funcs.S:1642
    1acc:	fd 01       	movw	r30, r26
/home/jenkins-mingw32/workspace/avr-gcc-staging/label/Ubuntu14.04x64-mingw32/gcc-build/avr/avr4/libgcc/../../../../gcc/libgcc/config/avr/lib1funcs.S:1644
    1ace:	0d c0       	rjmp	.+26     	; 0x1aea <__udivmodsi4_ep>

00001ad0 <__udivmodsi4_loop>:
/home/jenkins-mingw32/workspace/avr-gcc-staging/label/Ubuntu14.04x64-mingw32/gcc-build/avr/avr4/libgcc/../../../../gcc/libgcc/config/avr/lib1funcs.S:1646
    1ad0:	aa 1f       	adc	r26, r26
/home/jenkins-mingw32/workspace/avr-gcc-staging/label/Ubuntu14.04x64-mingw32/gcc-build/avr/avr4/libgcc/../../../../gcc/libgcc/config/avr/lib1funcs.S:1647
    1ad2:	bb 1f       	adc	r27, r27
/home/jenkins-mingw32/workspace/avr-gcc-staging/label/Ubuntu14.04x64-mingw32/gcc-build/avr/avr4/libgcc/../../../../gcc/libgcc/config/avr/lib1funcs.S:1648
    1ad4:	ee 1f       	adc	r30, r30
/home/jenkins-mingw32/workspace/avr-gcc-staging/label/Ubuntu14.04x64-mingw32/gcc-build/avr/avr4/libgcc/../../../../gcc/libgcc/config/avr/lib1funcs.S:1649
    1ad6:	ff 1f       	adc	r31, r31
/home/jenkins-mingw32/workspace/avr-gcc-staging/label/Ubuntu14.04x64-mingw32/gcc-build/avr/avr4/libgcc/../../../../gcc/libgcc/config/avr/lib1funcs.S:1650
    1ad8:	a2 17       	cp	r26, r18
/home/jenkins-mingw32/workspace/avr-gcc-staging/label/Ubuntu14.04x64-mingw32/gcc-build/avr/avr4/libgcc/../../../../gcc/libgcc/config/avr/lib1funcs.S:1651
    1ada:	b3 07       	cpc	r27, r19
/home/jenkins-mingw32/workspace/avr-gcc-staging/label/Ubuntu14.04x64-mingw32/gcc-build/avr/avr4/libgcc/../../../../gcc/libgcc/config/avr/lib1funcs.S:1652
    1adc:	e4 07       	cpc	r30, r20
/home/jenkins-mingw32/workspace/avr-gcc-staging/label/Ubuntu14.04x64-mingw32/gcc-build/avr/avr4/libgcc/../../../../gcc/libgcc/config/avr/lib1funcs.S:1653
    1ade:	f5 07       	cpc	r31, r21
/home/jenkins-mingw32/workspace/avr-gcc-staging/label/Ubuntu14.04x64-mingw32/gcc-build/avr/avr4/libgcc/../../../../gcc/libgcc/config/avr/lib1funcs.S:1654
    1ae0:	20 f0       	brcs	.+8      	; 0x1aea <__udivmodsi4_ep>
/home/jenkins-mingw32/workspace/avr-gcc-staging/label/Ubuntu14.04x64-mingw32/gcc-build/avr/avr4/libgcc/../../../../gcc/libgcc/config/avr/lib1funcs.S:1655
    1ae2:	a2 1b       	sub	r26, r18
/home/jenkins-mingw32/workspace/avr-gcc-staging/label/Ubuntu14.04x64-mingw32/gcc-build/avr/avr4/libgcc/../../../../gcc/libgcc/config/avr/lib1funcs.S:1656
    1ae4:	b3 0b       	sbc	r27, r19
/home/jenkins-mingw32/workspace/avr-gcc-staging/label/Ubuntu14.04x64-mingw32/gcc-build/avr/avr4/libgcc/../../../../gcc/libgcc/config/avr/lib1funcs.S:1657
    1ae6:	e4 0b       	sbc	r30, r20
/home/jenkins-mingw32/workspace/avr-gcc-staging/label/Ubuntu14.04x64-mingw32/gcc-build/avr/avr4/libgcc/../../../../gcc/libgcc/config/avr/lib1funcs.S:1658
    1ae8:	f5 0b       	sbc	r31, r21

00001aea <__udivmodsi4_ep>:
/home/jenkins-mingw32/workspace/avr-gcc-staging/label/Ubuntu14.04x64-mingw32/gcc-build/avr/avr4/libgcc/../../../../gcc/libgcc/config/avr/lib1funcs.S:1660
    1aea:	66 1f       	adc	r22, r22
/home/jenkins-mingw32/workspace/avr-gcc-staging/label/Ubuntu14.04x64-mingw32/gcc-build/avr/avr4/libgcc/../../../../gcc/libgcc/config/avr/lib1funcs.S:1661
    1aec:	77 1f       	adc	r23, r23
/home/jenkins-mingw32/workspace/avr-gcc-staging/label/Ubuntu14.04x64-mingw32/gcc-build/avr/avr4/libgcc/../../../../gcc/libgcc/config/avr/lib1funcs.S:1662
    1aee:	88 1f       	adc	r24, r24
/home/jenkins-mingw32/workspace/avr-gcc-staging/label/Ubuntu14.04x64-mingw32/gcc-build/avr/avr4/libgcc/../../../../gcc/libgcc/config/avr/lib1funcs.S:1663
    1af0:	99 1f       	adc	r25, r25
/home/jenkins-mingw32/workspace/avr-gcc-staging/label/Ubuntu14.04x64-mingw32/gcc-build/avr/avr4/libgcc/../../../../gcc/libgcc/config/avr/lib1funcs.S:1664
    1af2:	1a 94       	dec	r1
/home/jenkins-mingw32/workspace/avr-gcc-staging/label/Ubuntu14.04x64-mingw32/gcc-build/avr/avr4/libgcc/../../../../gcc/libgcc/config/avr/lib1funcs.S:1665
    1af4:	69 f7       	brne	.-38     	; 0x1ad0 <__udivmodsi4_loop>
/home/jenkins-mingw32/workspace/avr-gcc-staging/label/Ubuntu14.04x64-mingw32/gcc-build/avr/avr4/libgcc/../../../../gcc/libgcc/config/avr/lib1funcs.S:1667
    1af6:	60 95       	com	r22
/home/jenkins-mingw32/workspace/avr-gcc-staging/label/Ubuntu14.04x64-mingw32/gcc-build/avr/avr4/libgcc/../../../../gcc/libgcc/config/avr/lib1funcs.S:1668
    1af8:	70 95       	com	r23
/home/jenkins-mingw32/workspace/avr-gcc-staging/label/Ubuntu14.04x64-mingw32/gcc-build/avr/avr4/libgcc/../../../../gcc/libgcc/config/avr/lib1funcs.S:1669
    1afa:	80 95       	com	r24
/home/jenkins-mingw32/workspace/avr-gcc-staging/label/Ubuntu14.04x64-mingw32/gcc-build/avr/avr4/libgcc/../../../../gcc/libgcc/config/avr/lib1funcs.S:1670
    1afc:	90 95       	com	r25
/home/jenkins-mingw32/workspace/avr-gcc-staging/label/Ubuntu14.04x64-mingw32/gcc-build/avr/avr4/libgcc/../../../../gcc/libgcc/config/avr/lib1funcs.S:1672
    1afe:	9b 01       	movw	r18, r22
/home/jenkins-mingw32/workspace/avr-gcc-staging/label/Ubuntu14.04x64-mingw32/gcc-build/avr/avr4/libgcc/../../../../gcc/libgcc/config/avr/lib1funcs.S:1674
    1b00:	ac 01       	movw	r20, r24
/home/jenkins-mingw32/workspace/avr-gcc-staging/label/Ubuntu14.04x64-mingw32/gcc-build/avr/avr4/libgcc/../../../../gcc/libgcc/config/avr/lib1funcs.S:1676
    1b02:	bd 01       	movw	r22, r26
/home/jenkins-mingw32/workspace/avr-gcc-staging/label/Ubuntu14.04x64-mingw32/gcc-build/avr/avr4/libgcc/../../../../gcc/libgcc/config/avr/lib1funcs.S:1678
    1b04:	cf 01       	movw	r24, r30
/home/jenkins-mingw32/workspace/avr-gcc-staging/label/Ubuntu14.04x64-mingw32/gcc-build/avr/avr4/libgcc/../../../../gcc/libgcc/config/avr/lib1funcs.S:1680
    1b06:	08 95       	ret

00001b08 <__umulhisi3>:
__umulhisi3():
/home/jenkins-mingw32/workspace/avr-gcc-staging/label/Ubuntu14.04x64-mingw32/gcc-build/avr/avr4/libgcc/../../../../gcc/libgcc/config/avr/lib1funcs.S:564
    1b08:	a2 9f       	mul	r26, r18
/home/jenkins-mingw32/workspace/avr-gcc-staging/label/Ubuntu14.04x64-mingw32/gcc-build/avr/avr4/libgcc/../../../../gcc/libgcc/config/avr/lib1funcs.S:565
    1b0a:	b0 01       	movw	r22, r0
/home/jenkins-mingw32/workspace/avr-gcc-staging/label/Ubuntu14.04x64-mingw32/gcc-build/avr/avr4/libgcc/../../../../gcc/libgcc/config/avr/lib1funcs.S:566
    1b0c:	b3 9f       	mul	r27, r19
/home/jenkins-mingw32/workspace/avr-gcc-staging/label/Ubuntu14.04x64-mingw32/gcc-build/avr/avr4/libgcc/../../../../gcc/libgcc/config/avr/lib1funcs.S:567
    1b0e:	c0 01       	movw	r24, r0
/home/jenkins-mingw32/workspace/avr-gcc-staging/label/Ubuntu14.04x64-mingw32/gcc-build/avr/avr4/libgcc/../../../../gcc/libgcc/config/avr/lib1funcs.S:568
    1b10:	a3 9f       	mul	r26, r19
/home/jenkins-mingw32/workspace/avr-gcc-staging/label/Ubuntu14.04x64-mingw32/gcc-build/avr/avr4/libgcc/../../../../gcc/libgcc/config/avr/lib1funcs.S:578
    1b12:	01 d0       	rcall	.+2      	; 0x1b16 <__umulhisi3+0xe>
/home/jenkins-mingw32/workspace/avr-gcc-staging/label/Ubuntu14.04x64-mingw32/gcc-build/avr/avr4/libgcc/../../../../gcc/libgcc/config/avr/lib1funcs.S:580
    1b14:	b2 9f       	mul	r27, r18
/home/jenkins-mingw32/workspace/avr-gcc-staging/label/Ubuntu14.04x64-mingw32/gcc-build/avr/avr4/libgcc/../../../../gcc/libgcc/config/avr/lib1funcs.S:581
    1b16:	70 0d       	add	r23, r0
/home/jenkins-mingw32/workspace/avr-gcc-staging/label/Ubuntu14.04x64-mingw32/gcc-build/avr/avr4/libgcc/../../../../gcc/libgcc/config/avr/lib1funcs.S:582
    1b18:	81 1d       	adc	r24, r1
/home/jenkins-mingw32/workspace/avr-gcc-staging/label/Ubuntu14.04x64-mingw32/gcc-build/avr/avr4/libgcc/../../../../gcc/libgcc/config/avr/lib1funcs.S:583
    1b1a:	11 24       	eor	r1, r1
/home/jenkins-mingw32/workspace/avr-gcc-staging/label/Ubuntu14.04x64-mingw32/gcc-build/avr/avr4/libgcc/../../../../gcc/libgcc/config/avr/lib1funcs.S:584
    1b1c:	91 1d       	adc	r25, r1
/home/jenkins-mingw32/workspace/avr-gcc-staging/label/Ubuntu14.04x64-mingw32/gcc-build/avr/avr4/libgcc/../../../../gcc/libgcc/config/avr/lib1funcs.S:585
    1b1e:	08 95       	ret

00001b20 <__mulsi3>:
__mulsi3():
/home/jenkins-mingw32/workspace/avr-gcc-staging/label/Ubuntu14.04x64-mingw32/gcc-build/avr/avr4/libgcc/../../../../gcc/libgcc/config/avr/lib1funcs.S:648
    1b20:	db 01       	movw	r26, r22
/home/jenkins-mingw32/workspace/avr-gcc-staging/label/Ubuntu14.04x64-mingw32/gcc-build/avr/avr4/libgcc/../../../../gcc/libgcc/config/avr/lib1funcs.S:649
    1b22:	8f 93       	push	r24
/home/jenkins-mingw32/workspace/avr-gcc-staging/label/Ubuntu14.04x64-mingw32/gcc-build/avr/avr4/libgcc/../../../../gcc/libgcc/config/avr/lib1funcs.S:650
    1b24:	9f 93       	push	r25
/home/jenkins-mingw32/workspace/avr-gcc-staging/label/Ubuntu14.04x64-mingw32/gcc-build/avr/avr4/libgcc/../../../../gcc/libgcc/config/avr/lib1funcs.S:651
    1b26:	be df       	rcall	.-132    	; 0x1aa4 <__muluhisi3>
/home/jenkins-mingw32/workspace/avr-gcc-staging/label/Ubuntu14.04x64-mingw32/gcc-build/avr/avr4/libgcc/../../../../gcc/libgcc/config/avr/lib1funcs.S:652
    1b28:	bf 91       	pop	r27
/home/jenkins-mingw32/workspace/avr-gcc-staging/label/Ubuntu14.04x64-mingw32/gcc-build/avr/avr4/libgcc/../../../../gcc/libgcc/config/avr/lib1funcs.S:653
    1b2a:	af 91       	pop	r26
/home/jenkins-mingw32/workspace/avr-gcc-staging/label/Ubuntu14.04x64-mingw32/gcc-build/avr/avr4/libgcc/../../../../gcc/libgcc/config/avr/lib1funcs.S:655
    1b2c:	a2 9f       	mul	r26, r18
/home/jenkins-mingw32/workspace/avr-gcc-staging/label/Ubuntu14.04x64-mingw32/gcc-build/avr/avr4/libgcc/../../../../gcc/libgcc/config/avr/lib1funcs.S:656
    1b2e:	80 0d       	add	r24, r0
/home/jenkins-mingw32/workspace/avr-gcc-staging/label/Ubuntu14.04x64-mingw32/gcc-build/avr/avr4/libgcc/../../../../gcc/libgcc/config/avr/lib1funcs.S:657
    1b30:	91 1d       	adc	r25, r1
/home/jenkins-mingw32/workspace/avr-gcc-staging/label/Ubuntu14.04x64-mingw32/gcc-build/avr/avr4/libgcc/../../../../gcc/libgcc/config/avr/lib1funcs.S:658
    1b32:	a3 9f       	mul	r26, r19
/home/jenkins-mingw32/workspace/avr-gcc-staging/label/Ubuntu14.04x64-mingw32/gcc-build/avr/avr4/libgcc/../../../../gcc/libgcc/config/avr/lib1funcs.S:659
    1b34:	90 0d       	add	r25, r0
/home/jenkins-mingw32/workspace/avr-gcc-staging/label/Ubuntu14.04x64-mingw32/gcc-build/avr/avr4/libgcc/../../../../gcc/libgcc/config/avr/lib1funcs.S:660
    1b36:	b2 9f       	mul	r27, r18
/home/jenkins-mingw32/workspace/avr-gcc-staging/label/Ubuntu14.04x64-mingw32/gcc-build/avr/avr4/libgcc/../../../../gcc/libgcc/config/avr/lib1funcs.S:661
    1b38:	90 0d       	add	r25, r0
/home/jenkins-mingw32/workspace/avr-gcc-staging/label/Ubuntu14.04x64-mingw32/gcc-build/avr/avr4/libgcc/../../../../gcc/libgcc/config/avr/lib1funcs.S:662
    1b3a:	11 24       	eor	r1, r1
/home/jenkins-mingw32/workspace/avr-gcc-staging/label/Ubuntu14.04x64-mingw32/gcc-build/avr/avr4/libgcc/../../../../gcc/libgcc/config/avr/lib1funcs.S:663
    1b3c:	08 95       	ret

00001b3e <__divmodhi4>:
__divmodhi4():
/home/jenkins-mingw32/workspace/avr-gcc-staging/label/Ubuntu14.04x64-mingw32/gcc-build/avr/avr4/libgcc/../../../../gcc/libgcc/config/avr/lib1funcs.S:1440
    1b3e:	97 fb       	bst	r25, 7
/home/jenkins-mingw32/workspace/avr-gcc-staging/label/Ubuntu14.04x64-mingw32/gcc-build/avr/avr4/libgcc/../../../../gcc/libgcc/config/avr/lib1funcs.S:1441
    1b40:	07 2e       	mov	r0, r23
/home/jenkins-mingw32/workspace/avr-gcc-staging/label/Ubuntu14.04x64-mingw32/gcc-build/avr/avr4/libgcc/../../../../gcc/libgcc/config/avr/lib1funcs.S:1442
    1b42:	16 f4       	brtc	.+4      	; 0x1b48 <__divmodhi4+0xa>
/home/jenkins-mingw32/workspace/avr-gcc-staging/label/Ubuntu14.04x64-mingw32/gcc-build/avr/avr4/libgcc/../../../../gcc/libgcc/config/avr/lib1funcs.S:1443
    1b44:	00 94       	com	r0
/home/jenkins-mingw32/workspace/avr-gcc-staging/label/Ubuntu14.04x64-mingw32/gcc-build/avr/avr4/libgcc/../../../../gcc/libgcc/config/avr/lib1funcs.S:1444
    1b46:	06 d0       	rcall	.+12     	; 0x1b54 <__divmodhi4_neg1>
/home/jenkins-mingw32/workspace/avr-gcc-staging/label/Ubuntu14.04x64-mingw32/gcc-build/avr/avr4/libgcc/../../../../gcc/libgcc/config/avr/lib1funcs.S:1446
    1b48:	77 fd       	sbrc	r23, 7
/home/jenkins-mingw32/workspace/avr-gcc-staging/label/Ubuntu14.04x64-mingw32/gcc-build/avr/avr4/libgcc/../../../../gcc/libgcc/config/avr/lib1funcs.S:1447
    1b4a:	08 d0       	rcall	.+16     	; 0x1b5c <__divmodhi4_neg2>
/home/jenkins-mingw32/workspace/avr-gcc-staging/label/Ubuntu14.04x64-mingw32/gcc-build/avr/avr4/libgcc/../../../../gcc/libgcc/config/avr/lib1funcs.S:1448
    1b4c:	11 d0       	rcall	.+34     	; 0x1b70 <__udivmodhi4>
/home/jenkins-mingw32/workspace/avr-gcc-staging/label/Ubuntu14.04x64-mingw32/gcc-build/avr/avr4/libgcc/../../../../gcc/libgcc/config/avr/lib1funcs.S:1449
    1b4e:	07 fc       	sbrc	r0, 7
/home/jenkins-mingw32/workspace/avr-gcc-staging/label/Ubuntu14.04x64-mingw32/gcc-build/avr/avr4/libgcc/../../../../gcc/libgcc/config/avr/lib1funcs.S:1450
    1b50:	05 d0       	rcall	.+10     	; 0x1b5c <__divmodhi4_neg2>
/home/jenkins-mingw32/workspace/avr-gcc-staging/label/Ubuntu14.04x64-mingw32/gcc-build/avr/avr4/libgcc/../../../../gcc/libgcc/config/avr/lib1funcs.S:1451
    1b52:	3e f4       	brtc	.+14     	; 0x1b62 <__divmodhi4_exit>

00001b54 <__divmodhi4_neg1>:
/home/jenkins-mingw32/workspace/avr-gcc-staging/label/Ubuntu14.04x64-mingw32/gcc-build/avr/avr4/libgcc/../../../../gcc/libgcc/config/avr/lib1funcs.S:1454
    1b54:	90 95       	com	r25
/home/jenkins-mingw32/workspace/avr-gcc-staging/label/Ubuntu14.04x64-mingw32/gcc-build/avr/avr4/libgcc/../../../../gcc/libgcc/config/avr/lib1funcs.S:1455
    1b56:	81 95       	neg	r24
/home/jenkins-mingw32/workspace/avr-gcc-staging/label/Ubuntu14.04x64-mingw32/gcc-build/avr/avr4/libgcc/../../../../gcc/libgcc/config/avr/lib1funcs.S:1456
    1b58:	9f 4f       	sbci	r25, 0xFF	; 255
/home/jenkins-mingw32/workspace/avr-gcc-staging/label/Ubuntu14.04x64-mingw32/gcc-build/avr/avr4/libgcc/../../../../gcc/libgcc/config/avr/lib1funcs.S:1457
    1b5a:	08 95       	ret

00001b5c <__divmodhi4_neg2>:
/home/jenkins-mingw32/workspace/avr-gcc-staging/label/Ubuntu14.04x64-mingw32/gcc-build/avr/avr4/libgcc/../../../../gcc/libgcc/config/avr/lib1funcs.S:1460
    1b5c:	70 95       	com	r23
/home/jenkins-mingw32/workspace/avr-gcc-staging/label/Ubuntu14.04x64-mingw32/gcc-build/avr/avr4/libgcc/../../../../gcc/libgcc/config/avr/lib1funcs.S:1461
    1b5e:	61 95       	neg	r22
/home/jenkins-mingw32/workspace/avr-gcc-staging/label/Ubuntu14.04x64-mingw32/gcc-build/avr/avr4/libgcc/../../../../gcc/libgcc/config/avr/lib1funcs.S:1462
    1b60:	7f 4f       	sbci	r23, 0xFF	; 255

00001b62 <__divmodhi4_exit>:
/home/jenkins-mingw32/workspace/avr-gcc-staging/label/Ubuntu14.04x64-mingw32/gcc-build/avr/avr4/libgcc/../../../../gcc/libgcc/config/avr/lib1funcs.S:1464
    1b62:	08 95       	ret

00001b64 <__usmulhisi3>:
__usmulhisi3():
/home/jenkins-mingw32/workspace/avr-gcc-staging/label/Ubuntu14.04x64-mingw32/gcc-build/avr/avr4/libgcc/../../../../gcc/libgcc/config/avr/lib1funcs.S:545
    1b64:	d1 df       	rcall	.-94     	; 0x1b08 <__umulhisi3>

00001b66 <__usmulhisi3_tail>:
__usmulhisi3_tail():
/home/jenkins-mingw32/workspace/avr-gcc-staging/label/Ubuntu14.04x64-mingw32/gcc-build/avr/avr4/libgcc/../../../../gcc/libgcc/config/avr/lib1funcs.S:551
    1b66:	b7 ff       	sbrs	r27, 7
/home/jenkins-mingw32/workspace/avr-gcc-staging/label/Ubuntu14.04x64-mingw32/gcc-build/avr/avr4/libgcc/../../../../gcc/libgcc/config/avr/lib1funcs.S:552
    1b68:	08 95       	ret
/home/jenkins-mingw32/workspace/avr-gcc-staging/label/Ubuntu14.04x64-mingw32/gcc-build/avr/avr4/libgcc/../../../../gcc/libgcc/config/avr/lib1funcs.S:553
    1b6a:	82 1b       	sub	r24, r18
/home/jenkins-mingw32/workspace/avr-gcc-staging/label/Ubuntu14.04x64-mingw32/gcc-build/avr/avr4/libgcc/../../../../gcc/libgcc/config/avr/lib1funcs.S:554
    1b6c:	93 0b       	sbc	r25, r19
/home/jenkins-mingw32/workspace/avr-gcc-staging/label/Ubuntu14.04x64-mingw32/gcc-build/avr/avr4/libgcc/../../../../gcc/libgcc/config/avr/lib1funcs.S:555
    1b6e:	08 95       	ret

00001b70 <__udivmodhi4>:
__udivmodhi4():
/home/jenkins-mingw32/workspace/avr-gcc-staging/label/Ubuntu14.04x64-mingw32/gcc-build/avr/avr4/libgcc/../../../../gcc/libgcc/config/avr/lib1funcs.S:1408
    1b70:	aa 1b       	sub	r26, r26
/home/jenkins-mingw32/workspace/avr-gcc-staging/label/Ubuntu14.04x64-mingw32/gcc-build/avr/avr4/libgcc/../../../../gcc/libgcc/config/avr/lib1funcs.S:1409
    1b72:	bb 1b       	sub	r27, r27
/home/jenkins-mingw32/workspace/avr-gcc-staging/label/Ubuntu14.04x64-mingw32/gcc-build/avr/avr4/libgcc/../../../../gcc/libgcc/config/avr/lib1funcs.S:1410
    1b74:	51 e1       	ldi	r21, 0x11	; 17
/home/jenkins-mingw32/workspace/avr-gcc-staging/label/Ubuntu14.04x64-mingw32/gcc-build/avr/avr4/libgcc/../../../../gcc/libgcc/config/avr/lib1funcs.S:1411
    1b76:	07 c0       	rjmp	.+14     	; 0x1b86 <__udivmodhi4_ep>

00001b78 <__udivmodhi4_loop>:
/home/jenkins-mingw32/workspace/avr-gcc-staging/label/Ubuntu14.04x64-mingw32/gcc-build/avr/avr4/libgcc/../../../../gcc/libgcc/config/avr/lib1funcs.S:1413
    1b78:	aa 1f       	adc	r26, r26
/home/jenkins-mingw32/workspace/avr-gcc-staging/label/Ubuntu14.04x64-mingw32/gcc-build/avr/avr4/libgcc/../../../../gcc/libgcc/config/avr/lib1funcs.S:1414
    1b7a:	bb 1f       	adc	r27, r27
/home/jenkins-mingw32/workspace/avr-gcc-staging/label/Ubuntu14.04x64-mingw32/gcc-build/avr/avr4/libgcc/../../../../gcc/libgcc/config/avr/lib1funcs.S:1415
    1b7c:	a6 17       	cp	r26, r22
/home/jenkins-mingw32/workspace/avr-gcc-staging/label/Ubuntu14.04x64-mingw32/gcc-build/avr/avr4/libgcc/../../../../gcc/libgcc/config/avr/lib1funcs.S:1416
    1b7e:	b7 07       	cpc	r27, r23
/home/jenkins-mingw32/workspace/avr-gcc-staging/label/Ubuntu14.04x64-mingw32/gcc-build/avr/avr4/libgcc/../../../../gcc/libgcc/config/avr/lib1funcs.S:1417
    1b80:	10 f0       	brcs	.+4      	; 0x1b86 <__udivmodhi4_ep>
/home/jenkins-mingw32/workspace/avr-gcc-staging/label/Ubuntu14.04x64-mingw32/gcc-build/avr/avr4/libgcc/../../../../gcc/libgcc/config/avr/lib1funcs.S:1418
    1b82:	a6 1b       	sub	r26, r22
/home/jenkins-mingw32/workspace/avr-gcc-staging/label/Ubuntu14.04x64-mingw32/gcc-build/avr/avr4/libgcc/../../../../gcc/libgcc/config/avr/lib1funcs.S:1419
    1b84:	b7 0b       	sbc	r27, r23

00001b86 <__udivmodhi4_ep>:
/home/jenkins-mingw32/workspace/avr-gcc-staging/label/Ubuntu14.04x64-mingw32/gcc-build/avr/avr4/libgcc/../../../../gcc/libgcc/config/avr/lib1funcs.S:1421
    1b86:	88 1f       	adc	r24, r24
/home/jenkins-mingw32/workspace/avr-gcc-staging/label/Ubuntu14.04x64-mingw32/gcc-build/avr/avr4/libgcc/../../../../gcc/libgcc/config/avr/lib1funcs.S:1422
    1b88:	99 1f       	adc	r25, r25
/home/jenkins-mingw32/workspace/avr-gcc-staging/label/Ubuntu14.04x64-mingw32/gcc-build/avr/avr4/libgcc/../../../../gcc/libgcc/config/avr/lib1funcs.S:1423
    1b8a:	5a 95       	dec	r21
/home/jenkins-mingw32/workspace/avr-gcc-staging/label/Ubuntu14.04x64-mingw32/gcc-build/avr/avr4/libgcc/../../../../gcc/libgcc/config/avr/lib1funcs.S:1424
    1b8c:	a9 f7       	brne	.-22     	; 0x1b78 <__udivmodhi4_loop>
/home/jenkins-mingw32/workspace/avr-gcc-staging/label/Ubuntu14.04x64-mingw32/gcc-build/avr/avr4/libgcc/../../../../gcc/libgcc/config/avr/lib1funcs.S:1425
    1b8e:	80 95       	com	r24
/home/jenkins-mingw32/workspace/avr-gcc-staging/label/Ubuntu14.04x64-mingw32/gcc-build/avr/avr4/libgcc/../../../../gcc/libgcc/config/avr/lib1funcs.S:1426
    1b90:	90 95       	com	r25
/home/jenkins-mingw32/workspace/avr-gcc-staging/label/Ubuntu14.04x64-mingw32/gcc-build/avr/avr4/libgcc/../../../../gcc/libgcc/config/avr/lib1funcs.S:1428
    1b92:	bc 01       	movw	r22, r24
/home/jenkins-mingw32/workspace/avr-gcc-staging/label/Ubuntu14.04x64-mingw32/gcc-build/avr/avr4/libgcc/../../../../gcc/libgcc/config/avr/lib1funcs.S:1430
    1b94:	cd 01       	movw	r24, r26
/home/jenkins-mingw32/workspace/avr-gcc-staging/label/Ubuntu14.04x64-mingw32/gcc-build/avr/avr4/libgcc/../../../../gcc/libgcc/config/avr/lib1funcs.S:1432
    1b96:	08 95       	ret

00001b98 <__tablejump2__>:
__tablejump2__():
/home/jenkins-mingw32/workspace/avr-gcc-staging/label/Ubuntu14.04x64-mingw32/gcc-build/avr/avr4/libgcc/../../../../gcc/libgcc/config/avr/lib1funcs.S:2296
    1b98:	ee 0f       	add	r30, r30
/home/jenkins-mingw32/workspace/avr-gcc-staging/label/Ubuntu14.04x64-mingw32/gcc-build/avr/avr4/libgcc/../../../../gcc/libgcc/config/avr/lib1funcs.S:2297
    1b9a:	ff 1f       	adc	r31, r31
/home/jenkins-mingw32/workspace/avr-gcc-staging/label/Ubuntu14.04x64-mingw32/gcc-build/avr/avr4/libgcc/../../../../gcc/libgcc/config/avr/lib1funcs.S:2328
    1b9c:	05 90       	lpm	r0, Z+
/home/jenkins-mingw32/workspace/avr-gcc-staging/label/Ubuntu14.04x64-mingw32/gcc-build/avr/avr4/libgcc/../../../../gcc/libgcc/config/avr/lib1funcs.S:2329
    1b9e:	f4 91       	lpm	r31, Z
/home/jenkins-mingw32/workspace/avr-gcc-staging/label/Ubuntu14.04x64-mingw32/gcc-build/avr/avr4/libgcc/../../../../gcc/libgcc/config/avr/lib1funcs.S:2330
    1ba0:	e0 2d       	mov	r30, r0
/home/jenkins-mingw32/workspace/avr-gcc-staging/label/Ubuntu14.04x64-mingw32/gcc-build/avr/avr4/libgcc/../../../../gcc/libgcc/config/avr/lib1funcs.S:2331
    1ba2:	09 94       	ijmp

00001ba4 <abort>:
abort():
    1ba4:	81 e0       	ldi	r24, 0x01	; 1
    1ba6:	90 e0       	ldi	r25, 0x00	; 0
    1ba8:	f8 94       	cli
    1baa:	00 c0       	rjmp	.+0      	; 0x1bac <_exit>

00001bac <_exit>:
exit():
/home/jenkins-mingw32/workspace/avr-gcc-staging/label/Ubuntu14.04x64-mingw32/gcc-build/avr/avr4/libgcc/../../../../gcc/libgcc/config/avr/lib1funcs.S:2278
    1bac:	f8 94       	cli

00001bae <__stop_program>:
__stop_program():
/home/jenkins-mingw32/workspace/avr-gcc-staging/label/Ubuntu14.04x64-mingw32/gcc-build/avr/avr4/libgcc/../../../../gcc/libgcc/config/avr/lib1funcs.S:2280
    1bae:	ff cf       	rjmp	.-2      	; 0x1bae <__stop_program>
